ARM GAS  C:\Users\josue\AppData\Local\Temp\ccwVhq2H.s 			page 1


   1              		.syntax unified
   2              		.cpu cortex-m0
   3              		.fpu softvfp
   4              		.eabi_attribute 20, 1
   5              		.eabi_attribute 21, 1
   6              		.eabi_attribute 23, 3
   7              		.eabi_attribute 24, 1
   8              		.eabi_attribute 25, 1
   9              		.eabi_attribute 26, 1
  10              		.eabi_attribute 30, 1
  11              		.eabi_attribute 34, 0
  12              		.eabi_attribute 18, 4
  13              		.thumb
  14              		.syntax unified
  15              		.file	"cyfitter_cfg.c"
  16              		.text
  17              	.Ltext0:
  18              		.cfi_sections	.debug_frame
  19              		.section	.text.cfg_write_bytes32,"ax",%progbits
  20              		.align	2
  21              		.code	16
  22              		.thumb_func
  23              		.type	cfg_write_bytes32, %function
  24              	cfg_write_bytes32:
  25              	.LFB4:
  26              		.file 1 "Generated_Source\\PSoC4\\cyfitter_cfg.c"
   1:Generated_Source\PSoC4/cyfitter_cfg.c **** 
   2:Generated_Source\PSoC4/cyfitter_cfg.c **** /*******************************************************************************
   3:Generated_Source\PSoC4/cyfitter_cfg.c **** * File Name: cyfitter_cfg.c
   4:Generated_Source\PSoC4/cyfitter_cfg.c **** * 
   5:Generated_Source\PSoC4/cyfitter_cfg.c **** * PSoC Creator  4.2
   6:Generated_Source\PSoC4/cyfitter_cfg.c **** *
   7:Generated_Source\PSoC4/cyfitter_cfg.c **** * Description:
   8:Generated_Source\PSoC4/cyfitter_cfg.c **** * This file contains device initialization code.
   9:Generated_Source\PSoC4/cyfitter_cfg.c **** * Except for the user defined sections in CyClockStartupError(), this file should not be modified.
  10:Generated_Source\PSoC4/cyfitter_cfg.c **** * This file is automatically generated by PSoC Creator.
  11:Generated_Source\PSoC4/cyfitter_cfg.c **** *
  12:Generated_Source\PSoC4/cyfitter_cfg.c **** ********************************************************************************
  13:Generated_Source\PSoC4/cyfitter_cfg.c **** * Copyright (c) 2007-2018 Cypress Semiconductor.  All rights reserved.
  14:Generated_Source\PSoC4/cyfitter_cfg.c **** * You may use this file only in accordance with the license, terms, conditions, 
  15:Generated_Source\PSoC4/cyfitter_cfg.c **** * disclaimers, and limitations in the end user license agreement accompanying 
  16:Generated_Source\PSoC4/cyfitter_cfg.c **** * the software package with which this file was provided.
  17:Generated_Source\PSoC4/cyfitter_cfg.c **** ********************************************************************************/
  18:Generated_Source\PSoC4/cyfitter_cfg.c **** 
  19:Generated_Source\PSoC4/cyfitter_cfg.c **** #include <string.h>
  20:Generated_Source\PSoC4/cyfitter_cfg.c **** #include "cytypes.h"
  21:Generated_Source\PSoC4/cyfitter_cfg.c **** #include "cydevice_trm.h"
  22:Generated_Source\PSoC4/cyfitter_cfg.c **** #include "cyfitter.h"
  23:Generated_Source\PSoC4/cyfitter_cfg.c **** #include "CyLib.h"
  24:Generated_Source\PSoC4/cyfitter_cfg.c **** #include "CyLFClk.h"
  25:Generated_Source\PSoC4/cyfitter_cfg.c **** #include "cyfitter_cfg.h"
  26:Generated_Source\PSoC4/cyfitter_cfg.c **** #include "cyapicallbacks.h"
  27:Generated_Source\PSoC4/cyfitter_cfg.c **** 
  28:Generated_Source\PSoC4/cyfitter_cfg.c **** 
  29:Generated_Source\PSoC4/cyfitter_cfg.c **** #if defined(__GNUC__) || defined(__ARMCC_VERSION)
  30:Generated_Source\PSoC4/cyfitter_cfg.c ****     #define CYPACKED 
  31:Generated_Source\PSoC4/cyfitter_cfg.c ****     #define CYPACKED_ATTR __attribute__ ((packed))
ARM GAS  C:\Users\josue\AppData\Local\Temp\ccwVhq2H.s 			page 2


  32:Generated_Source\PSoC4/cyfitter_cfg.c ****     #define CYALIGNED __attribute__ ((aligned))
  33:Generated_Source\PSoC4/cyfitter_cfg.c ****     #define CY_CFG_UNUSED __attribute__ ((unused))
  34:Generated_Source\PSoC4/cyfitter_cfg.c ****     #ifndef CY_CFG_SECTION
  35:Generated_Source\PSoC4/cyfitter_cfg.c ****         #define CY_CFG_SECTION __attribute__ ((section(".psocinit")))
  36:Generated_Source\PSoC4/cyfitter_cfg.c ****     #endif
  37:Generated_Source\PSoC4/cyfitter_cfg.c ****     
  38:Generated_Source\PSoC4/cyfitter_cfg.c ****     #if defined(__ARMCC_VERSION)
  39:Generated_Source\PSoC4/cyfitter_cfg.c ****         #define CY_CFG_MEMORY_BARRIER() __memory_changed()
  40:Generated_Source\PSoC4/cyfitter_cfg.c ****     #else
  41:Generated_Source\PSoC4/cyfitter_cfg.c ****         #define CY_CFG_MEMORY_BARRIER() __sync_synchronize()
  42:Generated_Source\PSoC4/cyfitter_cfg.c ****     #endif
  43:Generated_Source\PSoC4/cyfitter_cfg.c ****     
  44:Generated_Source\PSoC4/cyfitter_cfg.c **** #elif defined(__ICCARM__)
  45:Generated_Source\PSoC4/cyfitter_cfg.c ****     #include <intrinsics.h>
  46:Generated_Source\PSoC4/cyfitter_cfg.c **** 
  47:Generated_Source\PSoC4/cyfitter_cfg.c ****     #define CYPACKED __packed
  48:Generated_Source\PSoC4/cyfitter_cfg.c ****     #define CYPACKED_ATTR 
  49:Generated_Source\PSoC4/cyfitter_cfg.c ****     #define CYALIGNED _Pragma("data_alignment=4")
  50:Generated_Source\PSoC4/cyfitter_cfg.c ****     #define CY_CFG_UNUSED _Pragma("diag_suppress=Pe177")
  51:Generated_Source\PSoC4/cyfitter_cfg.c ****     #define CY_CFG_SECTION _Pragma("location=\".psocinit\"")
  52:Generated_Source\PSoC4/cyfitter_cfg.c ****     
  53:Generated_Source\PSoC4/cyfitter_cfg.c ****     #define CY_CFG_MEMORY_BARRIER() __DMB()
  54:Generated_Source\PSoC4/cyfitter_cfg.c ****     
  55:Generated_Source\PSoC4/cyfitter_cfg.c **** #else
  56:Generated_Source\PSoC4/cyfitter_cfg.c ****     #error Unsupported toolchain
  57:Generated_Source\PSoC4/cyfitter_cfg.c **** #endif
  58:Generated_Source\PSoC4/cyfitter_cfg.c **** 
  59:Generated_Source\PSoC4/cyfitter_cfg.c **** #ifndef CYCODE
  60:Generated_Source\PSoC4/cyfitter_cfg.c ****     #define CYCODE
  61:Generated_Source\PSoC4/cyfitter_cfg.c **** #endif
  62:Generated_Source\PSoC4/cyfitter_cfg.c **** #ifndef CYDATA
  63:Generated_Source\PSoC4/cyfitter_cfg.c ****     #define CYDATA
  64:Generated_Source\PSoC4/cyfitter_cfg.c **** #endif
  65:Generated_Source\PSoC4/cyfitter_cfg.c **** #ifndef CYFAR
  66:Generated_Source\PSoC4/cyfitter_cfg.c ****     #define CYFAR
  67:Generated_Source\PSoC4/cyfitter_cfg.c **** #endif
  68:Generated_Source\PSoC4/cyfitter_cfg.c **** #ifndef CYXDATA
  69:Generated_Source\PSoC4/cyfitter_cfg.c ****     #define CYXDATA
  70:Generated_Source\PSoC4/cyfitter_cfg.c **** #endif
  71:Generated_Source\PSoC4/cyfitter_cfg.c **** 
  72:Generated_Source\PSoC4/cyfitter_cfg.c **** 
  73:Generated_Source\PSoC4/cyfitter_cfg.c **** CY_CFG_UNUSED
  74:Generated_Source\PSoC4/cyfitter_cfg.c **** static void CYMEMZERO(void *s, size_t n);
  75:Generated_Source\PSoC4/cyfitter_cfg.c **** CY_CFG_UNUSED
  76:Generated_Source\PSoC4/cyfitter_cfg.c **** static void CYMEMZERO(void *s, size_t n)
  77:Generated_Source\PSoC4/cyfitter_cfg.c **** {
  78:Generated_Source\PSoC4/cyfitter_cfg.c **** 	(void)memset(s, 0, n);
  79:Generated_Source\PSoC4/cyfitter_cfg.c **** }
  80:Generated_Source\PSoC4/cyfitter_cfg.c **** CY_CFG_UNUSED
  81:Generated_Source\PSoC4/cyfitter_cfg.c **** static void CYCONFIGCPY(void *dest, const void *src, size_t n);
  82:Generated_Source\PSoC4/cyfitter_cfg.c **** CY_CFG_UNUSED
  83:Generated_Source\PSoC4/cyfitter_cfg.c **** static void CYCONFIGCPY(void *dest, const void *src, size_t n)
  84:Generated_Source\PSoC4/cyfitter_cfg.c **** {
  85:Generated_Source\PSoC4/cyfitter_cfg.c **** 	(void)memcpy(dest, src, n);
  86:Generated_Source\PSoC4/cyfitter_cfg.c **** }
  87:Generated_Source\PSoC4/cyfitter_cfg.c **** CY_CFG_UNUSED
  88:Generated_Source\PSoC4/cyfitter_cfg.c **** static void CYCONFIGCPYCODE(void *dest, const void *src, size_t n);
ARM GAS  C:\Users\josue\AppData\Local\Temp\ccwVhq2H.s 			page 3


  89:Generated_Source\PSoC4/cyfitter_cfg.c **** CY_CFG_UNUSED
  90:Generated_Source\PSoC4/cyfitter_cfg.c **** static void CYCONFIGCPYCODE(void *dest, const void *src, size_t n)
  91:Generated_Source\PSoC4/cyfitter_cfg.c **** {
  92:Generated_Source\PSoC4/cyfitter_cfg.c **** 	(void)memcpy(dest, src, n);
  93:Generated_Source\PSoC4/cyfitter_cfg.c **** }
  94:Generated_Source\PSoC4/cyfitter_cfg.c **** 
  95:Generated_Source\PSoC4/cyfitter_cfg.c **** 
  96:Generated_Source\PSoC4/cyfitter_cfg.c **** 
  97:Generated_Source\PSoC4/cyfitter_cfg.c **** 
  98:Generated_Source\PSoC4/cyfitter_cfg.c **** /* Clock startup error codes                                                   */
  99:Generated_Source\PSoC4/cyfitter_cfg.c **** #define CYCLOCKSTART_NO_ERROR    0u
 100:Generated_Source\PSoC4/cyfitter_cfg.c **** #define CYCLOCKSTART_XTAL_ERROR  1u
 101:Generated_Source\PSoC4/cyfitter_cfg.c **** #define CYCLOCKSTART_32KHZ_ERROR 2u
 102:Generated_Source\PSoC4/cyfitter_cfg.c **** #define CYCLOCKSTART_PLL_ERROR   3u
 103:Generated_Source\PSoC4/cyfitter_cfg.c **** #define CYCLOCKSTART_FLL_ERROR   4u
 104:Generated_Source\PSoC4/cyfitter_cfg.c **** #define CYCLOCKSTART_WCO_ERROR   5u
 105:Generated_Source\PSoC4/cyfitter_cfg.c **** 
 106:Generated_Source\PSoC4/cyfitter_cfg.c **** 
 107:Generated_Source\PSoC4/cyfitter_cfg.c **** #ifdef CY_NEED_CYCLOCKSTARTUPERROR
 108:Generated_Source\PSoC4/cyfitter_cfg.c **** /*******************************************************************************
 109:Generated_Source\PSoC4/cyfitter_cfg.c **** * Function Name: CyClockStartupError
 110:Generated_Source\PSoC4/cyfitter_cfg.c **** ********************************************************************************
 111:Generated_Source\PSoC4/cyfitter_cfg.c **** * Summary:
 112:Generated_Source\PSoC4/cyfitter_cfg.c **** *  If an error is encountered during clock configuration (crystal startup error,
 113:Generated_Source\PSoC4/cyfitter_cfg.c **** *  PLL lock error, etc.), the system will end up here.  Unless reimplemented by
 114:Generated_Source\PSoC4/cyfitter_cfg.c **** *  the customer, this function will stop in an infinite loop.
 115:Generated_Source\PSoC4/cyfitter_cfg.c **** *
 116:Generated_Source\PSoC4/cyfitter_cfg.c **** * Parameters:
 117:Generated_Source\PSoC4/cyfitter_cfg.c **** *   void
 118:Generated_Source\PSoC4/cyfitter_cfg.c **** *
 119:Generated_Source\PSoC4/cyfitter_cfg.c **** * Return:
 120:Generated_Source\PSoC4/cyfitter_cfg.c **** *   void
 121:Generated_Source\PSoC4/cyfitter_cfg.c **** *
 122:Generated_Source\PSoC4/cyfitter_cfg.c **** *******************************************************************************/
 123:Generated_Source\PSoC4/cyfitter_cfg.c **** CY_CFG_UNUSED
 124:Generated_Source\PSoC4/cyfitter_cfg.c **** static void CyClockStartupError(uint8 errorCode);
 125:Generated_Source\PSoC4/cyfitter_cfg.c **** CY_CFG_UNUSED
 126:Generated_Source\PSoC4/cyfitter_cfg.c **** static void CyClockStartupError(uint8 errorCode)
 127:Generated_Source\PSoC4/cyfitter_cfg.c **** {
 128:Generated_Source\PSoC4/cyfitter_cfg.c ****     /* To remove the compiler warning if errorCode not used.                */
 129:Generated_Source\PSoC4/cyfitter_cfg.c ****     errorCode = errorCode;
 130:Generated_Source\PSoC4/cyfitter_cfg.c **** 
 131:Generated_Source\PSoC4/cyfitter_cfg.c ****     /* If we have a clock startup error (bad MHz crystal, PLL lock, etc.),  */
 132:Generated_Source\PSoC4/cyfitter_cfg.c ****     /* we will end up here to allow the customer to implement something to  */
 133:Generated_Source\PSoC4/cyfitter_cfg.c ****     /* deal with the clock condition.                                       */
 134:Generated_Source\PSoC4/cyfitter_cfg.c **** 
 135:Generated_Source\PSoC4/cyfitter_cfg.c **** #ifdef CY_CFG_CLOCK_STARTUP_ERROR_CALLBACK
 136:Generated_Source\PSoC4/cyfitter_cfg.c ****     CY_CFG_Clock_Startup_ErrorCallback();
 137:Generated_Source\PSoC4/cyfitter_cfg.c **** #else
 138:Generated_Source\PSoC4/cyfitter_cfg.c ****     /*  If not using CY_CFG_CLOCK_STARTUP_ERROR_CALLBACK, place your clock startup code here. */
 139:Generated_Source\PSoC4/cyfitter_cfg.c ****     /* `#START CyClockStartupError` */
 140:Generated_Source\PSoC4/cyfitter_cfg.c **** 
 141:Generated_Source\PSoC4/cyfitter_cfg.c **** 
 142:Generated_Source\PSoC4/cyfitter_cfg.c **** 
 143:Generated_Source\PSoC4/cyfitter_cfg.c ****     /* `#END` */
 144:Generated_Source\PSoC4/cyfitter_cfg.c **** 
 145:Generated_Source\PSoC4/cyfitter_cfg.c ****     while(1) {}
ARM GAS  C:\Users\josue\AppData\Local\Temp\ccwVhq2H.s 			page 4


 146:Generated_Source\PSoC4/cyfitter_cfg.c **** #endif /* CY_CFG_CLOCK_STARTUP_ERROR_CALLBACK */
 147:Generated_Source\PSoC4/cyfitter_cfg.c **** }
 148:Generated_Source\PSoC4/cyfitter_cfg.c **** #endif
 149:Generated_Source\PSoC4/cyfitter_cfg.c **** 
 150:Generated_Source\PSoC4/cyfitter_cfg.c **** #define CY_CFG_BASE_ADDR_COUNT 8u
 151:Generated_Source\PSoC4/cyfitter_cfg.c **** CYPACKED typedef struct
 152:Generated_Source\PSoC4/cyfitter_cfg.c **** {
 153:Generated_Source\PSoC4/cyfitter_cfg.c **** 	uint8 offset;
 154:Generated_Source\PSoC4/cyfitter_cfg.c **** 	uint8 value;
 155:Generated_Source\PSoC4/cyfitter_cfg.c **** } CYPACKED_ATTR cy_cfg_addrvalue_t;
 156:Generated_Source\PSoC4/cyfitter_cfg.c **** 
 157:Generated_Source\PSoC4/cyfitter_cfg.c **** 
 158:Generated_Source\PSoC4/cyfitter_cfg.c **** 
 159:Generated_Source\PSoC4/cyfitter_cfg.c **** /*******************************************************************************
 160:Generated_Source\PSoC4/cyfitter_cfg.c **** * Function Name: cfg_write_bytes32
 161:Generated_Source\PSoC4/cyfitter_cfg.c **** ********************************************************************************
 162:Generated_Source\PSoC4/cyfitter_cfg.c **** * Summary:
 163:Generated_Source\PSoC4/cyfitter_cfg.c **** *  This function is used for setting up the chip configuration areas that
 164:Generated_Source\PSoC4/cyfitter_cfg.c **** *  contain relatively sparse data.
 165:Generated_Source\PSoC4/cyfitter_cfg.c **** *
 166:Generated_Source\PSoC4/cyfitter_cfg.c **** * Parameters:
 167:Generated_Source\PSoC4/cyfitter_cfg.c **** *   void
 168:Generated_Source\PSoC4/cyfitter_cfg.c **** *
 169:Generated_Source\PSoC4/cyfitter_cfg.c **** * Return:
 170:Generated_Source\PSoC4/cyfitter_cfg.c **** *   void
 171:Generated_Source\PSoC4/cyfitter_cfg.c **** *
 172:Generated_Source\PSoC4/cyfitter_cfg.c **** *******************************************************************************/
 173:Generated_Source\PSoC4/cyfitter_cfg.c **** static void cfg_write_bytes32(const uint32 addr_table[], const cy_cfg_addrvalue_t data_table[]);
 174:Generated_Source\PSoC4/cyfitter_cfg.c **** static void cfg_write_bytes32(const uint32 addr_table[], const cy_cfg_addrvalue_t data_table[])
 175:Generated_Source\PSoC4/cyfitter_cfg.c **** {
  27              		.loc 1 175 0
  28              		.cfi_startproc
  29              		@ args = 0, pretend = 0, frame = 0
  30              		@ frame_needed = 0, uses_anonymous_args = 0
  31              	.LVL0:
  32 0000 F0B5     		push	{r4, r5, r6, r7, lr}
  33              		.cfi_def_cfa_offset 20
  34              		.cfi_offset 4, -20
  35              		.cfi_offset 5, -16
  36              		.cfi_offset 6, -12
  37              		.cfi_offset 7, -8
  38              		.cfi_offset 14, -4
  39              	.LVL1:
 176:Generated_Source\PSoC4/cyfitter_cfg.c **** 	/* For 32-bit little-endian architectures */
 177:Generated_Source\PSoC4/cyfitter_cfg.c **** 	uint32 i, j = 0u;
  40              		.loc 1 177 0
  41 0002 0025     		movs	r5, #0
 178:Generated_Source\PSoC4/cyfitter_cfg.c **** 	for (i = 0u; i < CY_CFG_BASE_ADDR_COUNT; i++)
  42              		.loc 1 178 0
  43 0004 0027     		movs	r7, #0
  44 0006 11E0     		b	.L2
  45              	.LVL2:
  46              	.L5:
  47              	.LBB2:
 179:Generated_Source\PSoC4/cyfitter_cfg.c **** 	{
 180:Generated_Source\PSoC4/cyfitter_cfg.c **** 		uint32 baseAddr = addr_table[i];
  48              		.loc 1 180 0
ARM GAS  C:\Users\josue\AppData\Local\Temp\ccwVhq2H.s 			page 5


  49 0008 BB00     		lsls	r3, r7, #2
  50 000a C658     		ldr	r6, [r0, r3]
  51              	.LVL3:
 181:Generated_Source\PSoC4/cyfitter_cfg.c **** 		uint8 count = (uint8)baseAddr;
  52              		.loc 1 181 0
  53 000c F3B2     		uxtb	r3, r6
  54              	.LVL4:
 182:Generated_Source\PSoC4/cyfitter_cfg.c **** 		baseAddr &= 0xFFFFFF00u;
  55              		.loc 1 182 0
  56 000e FF22     		movs	r2, #255
  57 0010 9643     		bics	r6, r2
  58              	.LVL5:
 183:Generated_Source\PSoC4/cyfitter_cfg.c **** 		while (count != 0u)
  59              		.loc 1 183 0
  60 0012 08E0     		b	.L3
  61              	.L4:
 184:Generated_Source\PSoC4/cyfitter_cfg.c **** 		{
 185:Generated_Source\PSoC4/cyfitter_cfg.c **** 			CY_SET_REG8((void *)(baseAddr + data_table[j].offset), data_table[j].value);
  62              		.loc 1 185 0
  63 0014 6A00     		lsls	r2, r5, #1
  64 0016 8A18     		adds	r2, r1, r2
  65 0018 1478     		ldrb	r4, [r2]
  66 001a A419     		adds	r4, r4, r6
  67 001c 5278     		ldrb	r2, [r2, #1]
  68 001e 2270     		strb	r2, [r4]
 186:Generated_Source\PSoC4/cyfitter_cfg.c **** 			j++;
  69              		.loc 1 186 0
  70 0020 0135     		adds	r5, r5, #1
  71              	.LVL6:
 187:Generated_Source\PSoC4/cyfitter_cfg.c **** 			count--;
  72              		.loc 1 187 0
  73 0022 013B     		subs	r3, r3, #1
  74              	.LVL7:
  75 0024 DBB2     		uxtb	r3, r3
  76              	.LVL8:
  77              	.L3:
 183:Generated_Source\PSoC4/cyfitter_cfg.c **** 		{
  78              		.loc 1 183 0
  79 0026 002B     		cmp	r3, #0
  80 0028 F4D1     		bne	.L4
  81              	.LBE2:
 178:Generated_Source\PSoC4/cyfitter_cfg.c **** 	{
  82              		.loc 1 178 0 discriminator 2
  83 002a 0137     		adds	r7, r7, #1
  84              	.LVL9:
  85              	.L2:
 178:Generated_Source\PSoC4/cyfitter_cfg.c **** 	{
  86              		.loc 1 178 0 is_stmt 0 discriminator 1
  87 002c 072F     		cmp	r7, #7
  88 002e EBD9     		bls	.L5
 188:Generated_Source\PSoC4/cyfitter_cfg.c **** 		}
 189:Generated_Source\PSoC4/cyfitter_cfg.c **** 	}
 190:Generated_Source\PSoC4/cyfitter_cfg.c **** }
  89              		.loc 1 190 0 is_stmt 1
  90              		@ sp needed
  91              	.LVL10:
  92              	.LVL11:
ARM GAS  C:\Users\josue\AppData\Local\Temp\ccwVhq2H.s 			page 6


  93 0030 F0BD     		pop	{r4, r5, r6, r7, pc}
  94              		.cfi_endproc
  95              	.LFE4:
  96              		.size	cfg_write_bytes32, .-cfg_write_bytes32
  97 0032 C046     		.section	.text.AnalogSetDefault,"ax",%progbits
  98              		.align	2
  99              		.code	16
 100              		.thumb_func
 101              		.type	AnalogSetDefault, %function
 102              	AnalogSetDefault:
 103              	.LFB6:
 191:Generated_Source\PSoC4/cyfitter_cfg.c **** 
 192:Generated_Source\PSoC4/cyfitter_cfg.c **** 
 193:Generated_Source\PSoC4/cyfitter_cfg.c **** /*******************************************************************************
 194:Generated_Source\PSoC4/cyfitter_cfg.c **** * Function Name: ClockSetup
 195:Generated_Source\PSoC4/cyfitter_cfg.c **** ********************************************************************************
 196:Generated_Source\PSoC4/cyfitter_cfg.c **** *
 197:Generated_Source\PSoC4/cyfitter_cfg.c **** * Summary:
 198:Generated_Source\PSoC4/cyfitter_cfg.c **** *   Performs the initialization of all of the clocks in the device based on the
 199:Generated_Source\PSoC4/cyfitter_cfg.c **** *   settings in the Clock tab of the DWR.  This includes enabling the requested
 200:Generated_Source\PSoC4/cyfitter_cfg.c **** *   clocks and setting the necessary dividers to produce the desired frequency. 
 201:Generated_Source\PSoC4/cyfitter_cfg.c **** *
 202:Generated_Source\PSoC4/cyfitter_cfg.c **** * Parameters:
 203:Generated_Source\PSoC4/cyfitter_cfg.c **** *   void
 204:Generated_Source\PSoC4/cyfitter_cfg.c **** *
 205:Generated_Source\PSoC4/cyfitter_cfg.c **** * Return:
 206:Generated_Source\PSoC4/cyfitter_cfg.c **** *   void
 207:Generated_Source\PSoC4/cyfitter_cfg.c **** *
 208:Generated_Source\PSoC4/cyfitter_cfg.c **** *******************************************************************************/
 209:Generated_Source\PSoC4/cyfitter_cfg.c **** static void ClockSetup(void);
 210:Generated_Source\PSoC4/cyfitter_cfg.c **** CY_CFG_SECTION
 211:Generated_Source\PSoC4/cyfitter_cfg.c **** static void ClockSetup(void)
 212:Generated_Source\PSoC4/cyfitter_cfg.c **** {
 213:Generated_Source\PSoC4/cyfitter_cfg.c **** 
 214:Generated_Source\PSoC4/cyfitter_cfg.c **** 	/* Set Flash Cycles based on max possible frequency in case a glitch occurs during ClockSetup(). *
 215:Generated_Source\PSoC4/cyfitter_cfg.c **** 	CY_SET_REG32((void CYXDATA *)(CYREG_CPUSS_FLASH_CTL), (0x0012u));
 216:Generated_Source\PSoC4/cyfitter_cfg.c **** 	/* Setup and trim IMO based on desired frequency. */
 217:Generated_Source\PSoC4/cyfitter_cfg.c **** 	CySysClkWriteImoFreq(48u);
 218:Generated_Source\PSoC4/cyfitter_cfg.c **** 	/* CYDEV_CLK_ILO_CONFIG Starting address: CYDEV_CLK_ILO_CONFIG */
 219:Generated_Source\PSoC4/cyfitter_cfg.c **** 	CY_SET_REG32((void *)(CYREG_CLK_ILO_CONFIG), 0x80000006u);
 220:Generated_Source\PSoC4/cyfitter_cfg.c **** 
 221:Generated_Source\PSoC4/cyfitter_cfg.c **** 
 222:Generated_Source\PSoC4/cyfitter_cfg.c **** 	/* Setup phase aligned clocks */
 223:Generated_Source\PSoC4/cyfitter_cfg.c **** 	CY_SET_REG32((void *)CYREG_PERI_DIV_16_CTL0, 0x00000300u);
 224:Generated_Source\PSoC4/cyfitter_cfg.c **** 	CY_SET_REG32((void *)CYREG_PERI_DIV_CMD, 0x8000FF40u);
 225:Generated_Source\PSoC4/cyfitter_cfg.c **** 	CY_SET_REG32((void *)CYREG_PERI_DIV_16_CTL1, 0x00000400u);
 226:Generated_Source\PSoC4/cyfitter_cfg.c **** 	CY_SET_REG32((void *)CYREG_PERI_DIV_CMD, 0x8000FF41u);
 227:Generated_Source\PSoC4/cyfitter_cfg.c **** 
 228:Generated_Source\PSoC4/cyfitter_cfg.c **** 	/* CYDEV_CLK_IMO_CONFIG Starting address: CYDEV_CLK_IMO_CONFIG */
 229:Generated_Source\PSoC4/cyfitter_cfg.c **** 	CY_SET_REG32((void *)(CYREG_CLK_IMO_CONFIG), 0x80000000u);
 230:Generated_Source\PSoC4/cyfitter_cfg.c **** 
 231:Generated_Source\PSoC4/cyfitter_cfg.c **** 	/* CYDEV_CLK_SELECT Starting address: CYDEV_CLK_SELECT */
 232:Generated_Source\PSoC4/cyfitter_cfg.c **** 	CY_SET_REG32((void *)(CYREG_CLK_SELECT), 0x00040000u);
 233:Generated_Source\PSoC4/cyfitter_cfg.c **** 
 234:Generated_Source\PSoC4/cyfitter_cfg.c **** 	/* CYDEV_PERI_PCLK_CTL19 Starting address: CYDEV_PERI_PCLK_CTL19 */
 235:Generated_Source\PSoC4/cyfitter_cfg.c **** 	CY_SET_REG32((void *)(CYREG_PERI_PCLK_CTL19), 0x00000041u);
 236:Generated_Source\PSoC4/cyfitter_cfg.c **** 
ARM GAS  C:\Users\josue\AppData\Local\Temp\ccwVhq2H.s 			page 7


 237:Generated_Source\PSoC4/cyfitter_cfg.c **** 	(void)CyIntSetVector(7u, &CySysWdtIsr);
 238:Generated_Source\PSoC4/cyfitter_cfg.c **** 	CyIntEnable(7u);
 239:Generated_Source\PSoC4/cyfitter_cfg.c **** 	CY_SET_REG32((void *)(CYREG_WDT_CONFIG), 0x00000000u);
 240:Generated_Source\PSoC4/cyfitter_cfg.c **** }
 241:Generated_Source\PSoC4/cyfitter_cfg.c **** 
 242:Generated_Source\PSoC4/cyfitter_cfg.c **** 
 243:Generated_Source\PSoC4/cyfitter_cfg.c **** /* Analog API Functions */
 244:Generated_Source\PSoC4/cyfitter_cfg.c **** 
 245:Generated_Source\PSoC4/cyfitter_cfg.c **** 
 246:Generated_Source\PSoC4/cyfitter_cfg.c **** /*******************************************************************************
 247:Generated_Source\PSoC4/cyfitter_cfg.c **** * Function Name: AnalogSetDefault
 248:Generated_Source\PSoC4/cyfitter_cfg.c **** ********************************************************************************
 249:Generated_Source\PSoC4/cyfitter_cfg.c **** *
 250:Generated_Source\PSoC4/cyfitter_cfg.c **** * Summary:
 251:Generated_Source\PSoC4/cyfitter_cfg.c **** *  Sets up the analog portions of the chip to default values based on chip
 252:Generated_Source\PSoC4/cyfitter_cfg.c **** *  configuration options from the project.
 253:Generated_Source\PSoC4/cyfitter_cfg.c **** *
 254:Generated_Source\PSoC4/cyfitter_cfg.c **** * Parameters:
 255:Generated_Source\PSoC4/cyfitter_cfg.c **** *  void
 256:Generated_Source\PSoC4/cyfitter_cfg.c **** *
 257:Generated_Source\PSoC4/cyfitter_cfg.c **** * Return:
 258:Generated_Source\PSoC4/cyfitter_cfg.c **** *  void
 259:Generated_Source\PSoC4/cyfitter_cfg.c **** *
 260:Generated_Source\PSoC4/cyfitter_cfg.c **** *******************************************************************************/
 261:Generated_Source\PSoC4/cyfitter_cfg.c **** static void AnalogSetDefault(void);
 262:Generated_Source\PSoC4/cyfitter_cfg.c **** static void AnalogSetDefault(void)
 263:Generated_Source\PSoC4/cyfitter_cfg.c **** {
 104              		.loc 1 263 0
 105              		.cfi_startproc
 106              		@ args = 0, pretend = 0, frame = 0
 107              		@ frame_needed = 0, uses_anonymous_args = 0
 108              		@ link register save eliminated.
 264:Generated_Source\PSoC4/cyfitter_cfg.c **** 	CY_SET_XTND_REG32((void CYFAR *)CYREG_CTBM0_DFT_CTRL, 0x00000003u);
 109              		.loc 1 264 0
 110 0000 0323     		movs	r3, #3
 111 0002 044A     		ldr	r2, .L7
 112 0004 1360     		str	r3, [r2]
 265:Generated_Source\PSoC4/cyfitter_cfg.c **** 	CY_SET_XTND_REG32((void CYFAR *)CYREG_CTBM1_DFT_CTRL, 0x00000003u);
 113              		.loc 1 265 0
 114 0006 044A     		ldr	r2, .L7+4
 115 0008 1360     		str	r3, [r2]
 266:Generated_Source\PSoC4/cyfitter_cfg.c **** 	CY_SET_XTND_REG32((void CYFAR *)CYREG_PASS_DSAB_DSAB_CTRL, 0x00000000u);
 116              		.loc 1 266 0
 117 000a 0022     		movs	r2, #0
 118 000c 034B     		ldr	r3, .L7+8
 119 000e 1A60     		str	r2, [r3]
 267:Generated_Source\PSoC4/cyfitter_cfg.c **** }
 120              		.loc 1 267 0
 121              		@ sp needed
 122 0010 7047     		bx	lr
 123              	.L8:
 124 0012 C046     		.align	2
 125              	.L7:
 126 0014 30003040 		.word	1076887600
 127 0018 30003140 		.word	1076953136
 128 001c 000E3F40 		.word	1077874176
 129              		.cfi_endproc
ARM GAS  C:\Users\josue\AppData\Local\Temp\ccwVhq2H.s 			page 8


 130              	.LFE6:
 131              		.size	AnalogSetDefault, .-AnalogSetDefault
 132              		.section	.text.CYMEMZERO,"ax",%progbits
 133              		.align	2
 134              		.code	16
 135              		.thumb_func
 136              		.type	CYMEMZERO, %function
 137              	CYMEMZERO:
 138              	.LFB1:
  77:Generated_Source\PSoC4/cyfitter_cfg.c **** 	(void)memset(s, 0, n);
 139              		.loc 1 77 0
 140              		.cfi_startproc
 141              		@ args = 0, pretend = 0, frame = 0
 142              		@ frame_needed = 0, uses_anonymous_args = 0
 143              	.LVL12:
 144 0000 10B5     		push	{r4, lr}
 145              		.cfi_def_cfa_offset 8
 146              		.cfi_offset 4, -8
 147              		.cfi_offset 14, -4
 148 0002 0A00     		movs	r2, r1
  78:Generated_Source\PSoC4/cyfitter_cfg.c **** }
 149              		.loc 1 78 0
 150 0004 0021     		movs	r1, #0
 151              	.LVL13:
 152 0006 FFF7FEFF 		bl	memset
 153              	.LVL14:
  79:Generated_Source\PSoC4/cyfitter_cfg.c **** CY_CFG_UNUSED
 154              		.loc 1 79 0
 155              		@ sp needed
 156 000a 10BD     		pop	{r4, pc}
 157              		.cfi_endproc
 158              	.LFE1:
 159              		.size	CYMEMZERO, .-CYMEMZERO
 160              		.section	.psocinit,"ax",%progbits
 161              		.align	2
 162              		.code	16
 163              		.thumb_func
 164              		.type	ClockSetup, %function
 165              	ClockSetup:
 166              	.LFB5:
 212:Generated_Source\PSoC4/cyfitter_cfg.c **** 
 167              		.loc 1 212 0
 168              		.cfi_startproc
 169              		@ args = 0, pretend = 0, frame = 0
 170              		@ frame_needed = 0, uses_anonymous_args = 0
 171 0000 10B5     		push	{r4, lr}
 172              		.cfi_def_cfa_offset 8
 173              		.cfi_offset 4, -8
 174              		.cfi_offset 14, -4
 215:Generated_Source\PSoC4/cyfitter_cfg.c **** 	/* Setup and trim IMO based on desired frequency. */
 175              		.loc 1 215 0
 176 0002 1222     		movs	r2, #18
 177 0004 154B     		ldr	r3, .L11
 178 0006 1A60     		str	r2, [r3]
 217:Generated_Source\PSoC4/cyfitter_cfg.c **** 	/* CYDEV_CLK_ILO_CONFIG Starting address: CYDEV_CLK_ILO_CONFIG */
 179              		.loc 1 217 0
 180 0008 3020     		movs	r0, #48
ARM GAS  C:\Users\josue\AppData\Local\Temp\ccwVhq2H.s 			page 9


 181 000a FFF7FEFF 		bl	CySysClkWriteImoFreq
 182              	.LVL15:
 219:Generated_Source\PSoC4/cyfitter_cfg.c **** 
 183              		.loc 1 219 0
 184 000e 144A     		ldr	r2, .L11+4
 185 0010 144B     		ldr	r3, .L11+8
 186 0012 1A60     		str	r2, [r3]
 223:Generated_Source\PSoC4/cyfitter_cfg.c **** 	CY_SET_REG32((void *)CYREG_PERI_DIV_CMD, 0x8000FF40u);
 187              		.loc 1 223 0
 188 0014 C022     		movs	r2, #192
 189 0016 9200     		lsls	r2, r2, #2
 190 0018 134B     		ldr	r3, .L11+12
 191 001a 1A60     		str	r2, [r3]
 224:Generated_Source\PSoC4/cyfitter_cfg.c **** 	CY_SET_REG32((void *)CYREG_PERI_DIV_16_CTL1, 0x00000400u);
 192              		.loc 1 224 0
 193 001c 134B     		ldr	r3, .L11+16
 194 001e 144A     		ldr	r2, .L11+20
 195 0020 1A60     		str	r2, [r3]
 225:Generated_Source\PSoC4/cyfitter_cfg.c **** 	CY_SET_REG32((void *)CYREG_PERI_DIV_CMD, 0x8000FF41u);
 196              		.loc 1 225 0
 197 0022 8021     		movs	r1, #128
 198 0024 C900     		lsls	r1, r1, #3
 199 0026 134A     		ldr	r2, .L11+24
 200 0028 1160     		str	r1, [r2]
 226:Generated_Source\PSoC4/cyfitter_cfg.c **** 
 201              		.loc 1 226 0
 202 002a 134A     		ldr	r2, .L11+28
 203 002c 1A60     		str	r2, [r3]
 229:Generated_Source\PSoC4/cyfitter_cfg.c **** 
 204              		.loc 1 229 0
 205 002e 8022     		movs	r2, #128
 206 0030 1206     		lsls	r2, r2, #24
 207 0032 124B     		ldr	r3, .L11+32
 208 0034 1A60     		str	r2, [r3]
 232:Generated_Source\PSoC4/cyfitter_cfg.c **** 
 209              		.loc 1 232 0
 210 0036 8022     		movs	r2, #128
 211 0038 D202     		lsls	r2, r2, #11
 212 003a 114B     		ldr	r3, .L11+36
 213 003c 1A60     		str	r2, [r3]
 235:Generated_Source\PSoC4/cyfitter_cfg.c **** 
 214              		.loc 1 235 0
 215 003e 4122     		movs	r2, #65
 216 0040 104B     		ldr	r3, .L11+40
 217 0042 1A60     		str	r2, [r3]
 237:Generated_Source\PSoC4/cyfitter_cfg.c **** 	CyIntEnable(7u);
 218              		.loc 1 237 0
 219 0044 1049     		ldr	r1, .L11+44
 220 0046 0720     		movs	r0, #7
 221 0048 FFF7FEFF 		bl	CyIntSetVector
 222              	.LVL16:
 238:Generated_Source\PSoC4/cyfitter_cfg.c **** 	CY_SET_REG32((void *)(CYREG_WDT_CONFIG), 0x00000000u);
 223              		.loc 1 238 0
 224 004c 0720     		movs	r0, #7
 225 004e FFF7FEFF 		bl	CyIntEnable
 226              	.LVL17:
 239:Generated_Source\PSoC4/cyfitter_cfg.c **** }
ARM GAS  C:\Users\josue\AppData\Local\Temp\ccwVhq2H.s 			page 10


 227              		.loc 1 239 0
 228 0052 0022     		movs	r2, #0
 229 0054 0D4B     		ldr	r3, .L11+48
 230 0056 1A60     		str	r2, [r3]
 240:Generated_Source\PSoC4/cyfitter_cfg.c **** 
 231              		.loc 1 240 0
 232              		@ sp needed
 233 0058 10BD     		pop	{r4, pc}
 234              	.L12:
 235 005a C046     		.align	2
 236              	.L11:
 237 005c 30001040 		.word	1074790448
 238 0060 06000080 		.word	-2147483642
 239 0064 04010B40 		.word	1074462980
 240 0068 00030140 		.word	1073808128
 241 006c 00000140 		.word	1073807360
 242 0070 40FF0080 		.word	-2147418304
 243 0074 04030140 		.word	1073808132
 244 0078 41FF0080 		.word	-2147418303
 245 007c 08010B40 		.word	1074462984
 246 0080 00010B40 		.word	1074462976
 247 0084 4C010140 		.word	1073807692
 248 0088 00000000 		.word	CySysWdtIsr
 249 008c 0C020B40 		.word	1074463244
 250              		.cfi_endproc
 251              	.LFE5:
 252              		.size	ClockSetup, .-ClockSetup
 253              		.align	2
 254              		.global	cyfitter_cfg
 255              		.code	16
 256              		.thumb_func
 257              		.type	cyfitter_cfg, %function
 258              	cyfitter_cfg:
 259              	.LFB7:
 268:Generated_Source\PSoC4/cyfitter_cfg.c **** 
 269:Generated_Source\PSoC4/cyfitter_cfg.c **** 
 270:Generated_Source\PSoC4/cyfitter_cfg.c **** 
 271:Generated_Source\PSoC4/cyfitter_cfg.c **** 
 272:Generated_Source\PSoC4/cyfitter_cfg.c **** /*******************************************************************************
 273:Generated_Source\PSoC4/cyfitter_cfg.c **** * Function Name: cyfitter_cfg
 274:Generated_Source\PSoC4/cyfitter_cfg.c **** ********************************************************************************
 275:Generated_Source\PSoC4/cyfitter_cfg.c **** * Summary:
 276:Generated_Source\PSoC4/cyfitter_cfg.c **** *  This function is called by the start-up code for the selected device. It
 277:Generated_Source\PSoC4/cyfitter_cfg.c **** *  performs all of the necessary device configuration based on the design
 278:Generated_Source\PSoC4/cyfitter_cfg.c **** *  settings.  This includes settings from the Design Wide Resources (DWR) such
 279:Generated_Source\PSoC4/cyfitter_cfg.c **** *  as Clocks and Pins as well as any component configuration that is necessary.
 280:Generated_Source\PSoC4/cyfitter_cfg.c **** *
 281:Generated_Source\PSoC4/cyfitter_cfg.c **** * Parameters:
 282:Generated_Source\PSoC4/cyfitter_cfg.c **** *   void
 283:Generated_Source\PSoC4/cyfitter_cfg.c **** *
 284:Generated_Source\PSoC4/cyfitter_cfg.c **** * Return:
 285:Generated_Source\PSoC4/cyfitter_cfg.c **** *   void
 286:Generated_Source\PSoC4/cyfitter_cfg.c **** *
 287:Generated_Source\PSoC4/cyfitter_cfg.c **** *******************************************************************************/
 288:Generated_Source\PSoC4/cyfitter_cfg.c **** CY_CFG_SECTION
 289:Generated_Source\PSoC4/cyfitter_cfg.c **** void cyfitter_cfg(void)
 290:Generated_Source\PSoC4/cyfitter_cfg.c **** {
ARM GAS  C:\Users\josue\AppData\Local\Temp\ccwVhq2H.s 			page 11


 260              		.loc 1 290 0
 261              		.cfi_startproc
 262              		@ args = 0, pretend = 0, frame = 0
 263              		@ frame_needed = 0, uses_anonymous_args = 0
 264 0090 10B5     		push	{r4, lr}
 265              		.cfi_def_cfa_offset 8
 266              		.cfi_offset 4, -8
 267              		.cfi_offset 14, -4
 291:Generated_Source\PSoC4/cyfitter_cfg.c **** 	/* Disable interrupts by default. Let user enable if/when they want. */
 292:Generated_Source\PSoC4/cyfitter_cfg.c **** 	CyGlobalIntDisable;
 268              		.loc 1 292 0
 269              		.syntax divided
 270              	@ 292 "Generated_Source\PSoC4\cyfitter_cfg.c" 1
 271 0092 72B6     		CPSID   i
 272              	@ 0 "" 2
 293:Generated_Source\PSoC4/cyfitter_cfg.c **** 
 294:Generated_Source\PSoC4/cyfitter_cfg.c **** 	/* Enable the clock in the interrupt controller for the routed interrupts */
 295:Generated_Source\PSoC4/cyfitter_cfg.c **** 	CY_SET_REG8((void *)CYREG_UDB_UDBIF_INT_CLK_CTL, 0x01u);
 273              		.loc 1 295 0
 274              		.thumb
 275              		.syntax unified
 276 0094 0122     		movs	r2, #1
 277 0096 324B     		ldr	r3, .L16
 278 0098 1A70     		strb	r2, [r3]
 279              	.LVL18:
 280              	.LBB3:
 296:Generated_Source\PSoC4/cyfitter_cfg.c **** 	{
 297:Generated_Source\PSoC4/cyfitter_cfg.c **** 		static const uint32 CYCODE cy_cfg_addr_table[] = {
 298:Generated_Source\PSoC4/cyfitter_cfg.c **** 			0x400F0001u, /* Base address: 0x400F0000 Count: 1 */
 299:Generated_Source\PSoC4/cyfitter_cfg.c **** 			0x400F3102u, /* Base address: 0x400F3100 Count: 2 */
 300:Generated_Source\PSoC4/cyfitter_cfg.c **** 			0x400F3231u, /* Base address: 0x400F3200 Count: 49 */
 301:Generated_Source\PSoC4/cyfitter_cfg.c **** 			0x400F3325u, /* Base address: 0x400F3300 Count: 37 */
 302:Generated_Source\PSoC4/cyfitter_cfg.c **** 			0x400F400Cu, /* Base address: 0x400F4000 Count: 12 */
 303:Generated_Source\PSoC4/cyfitter_cfg.c **** 			0x400F4112u, /* Base address: 0x400F4100 Count: 18 */
 304:Generated_Source\PSoC4/cyfitter_cfg.c **** 			0x400F4304u, /* Base address: 0x400F4300 Count: 4 */
 305:Generated_Source\PSoC4/cyfitter_cfg.c **** 			0x400F6002u, /* Base address: 0x400F6000 Count: 2 */
 306:Generated_Source\PSoC4/cyfitter_cfg.c **** 		};
 307:Generated_Source\PSoC4/cyfitter_cfg.c **** 
 308:Generated_Source\PSoC4/cyfitter_cfg.c **** 		static const cy_cfg_addrvalue_t CYCODE cy_cfg_data_table[] = {
 309:Generated_Source\PSoC4/cyfitter_cfg.c **** 			{0x83u, 0x0Du},
 310:Generated_Source\PSoC4/cyfitter_cfg.c **** 			{0x8Bu, 0x08u},
 311:Generated_Source\PSoC4/cyfitter_cfg.c **** 			{0xE4u, 0x80u},
 312:Generated_Source\PSoC4/cyfitter_cfg.c **** 			{0x40u, 0x45u},
 313:Generated_Source\PSoC4/cyfitter_cfg.c **** 			{0x49u, 0xFFu},
 314:Generated_Source\PSoC4/cyfitter_cfg.c **** 			{0x4Au, 0xFFu},
 315:Generated_Source\PSoC4/cyfitter_cfg.c **** 			{0x4Bu, 0xFFu},
 316:Generated_Source\PSoC4/cyfitter_cfg.c **** 			{0x4Fu, 0x01u},
 317:Generated_Source\PSoC4/cyfitter_cfg.c **** 			{0x50u, 0x18u},
 318:Generated_Source\PSoC4/cyfitter_cfg.c **** 			{0x5Au, 0x04u},
 319:Generated_Source\PSoC4/cyfitter_cfg.c **** 			{0x5Bu, 0x04u},
 320:Generated_Source\PSoC4/cyfitter_cfg.c **** 			{0x5Fu, 0x01u},
 321:Generated_Source\PSoC4/cyfitter_cfg.c **** 			{0x60u, 0x40u},
 322:Generated_Source\PSoC4/cyfitter_cfg.c **** 			{0x62u, 0x40u},
 323:Generated_Source\PSoC4/cyfitter_cfg.c **** 			{0x64u, 0x40u},
 324:Generated_Source\PSoC4/cyfitter_cfg.c **** 			{0x65u, 0x40u},
 325:Generated_Source\PSoC4/cyfitter_cfg.c **** 			{0x66u, 0x80u},
 326:Generated_Source\PSoC4/cyfitter_cfg.c **** 			{0x68u, 0x80u},
ARM GAS  C:\Users\josue\AppData\Local\Temp\ccwVhq2H.s 			page 12


 327:Generated_Source\PSoC4/cyfitter_cfg.c **** 			{0x6Au, 0x80u},
 328:Generated_Source\PSoC4/cyfitter_cfg.c **** 			{0x6Cu, 0x80u},
 329:Generated_Source\PSoC4/cyfitter_cfg.c **** 			{0x6Eu, 0x80u},
 330:Generated_Source\PSoC4/cyfitter_cfg.c **** 			{0x8Eu, 0x01u},
 331:Generated_Source\PSoC4/cyfitter_cfg.c **** 			{0x92u, 0x01u},
 332:Generated_Source\PSoC4/cyfitter_cfg.c **** 			{0xB0u, 0x01u},
 333:Generated_Source\PSoC4/cyfitter_cfg.c **** 			{0xB2u, 0x01u},
 334:Generated_Source\PSoC4/cyfitter_cfg.c **** 			{0xBEu, 0x01u},
 335:Generated_Source\PSoC4/cyfitter_cfg.c **** 			{0xC0u, 0x54u},
 336:Generated_Source\PSoC4/cyfitter_cfg.c **** 			{0xC5u, 0xECu},
 337:Generated_Source\PSoC4/cyfitter_cfg.c **** 			{0xC7u, 0x20u},
 338:Generated_Source\PSoC4/cyfitter_cfg.c **** 			{0xC8u, 0x23u},
 339:Generated_Source\PSoC4/cyfitter_cfg.c **** 			{0xC9u, 0xFFu},
 340:Generated_Source\PSoC4/cyfitter_cfg.c **** 			{0xCAu, 0xFFu},
 341:Generated_Source\PSoC4/cyfitter_cfg.c **** 			{0xCBu, 0xFFu},
 342:Generated_Source\PSoC4/cyfitter_cfg.c **** 			{0xCDu, 0x83u},
 343:Generated_Source\PSoC4/cyfitter_cfg.c **** 			{0xCEu, 0x03u},
 344:Generated_Source\PSoC4/cyfitter_cfg.c **** 			{0xCFu, 0x01u},
 345:Generated_Source\PSoC4/cyfitter_cfg.c **** 			{0xD0u, 0x18u},
 346:Generated_Source\PSoC4/cyfitter_cfg.c **** 			{0xD2u, 0x80u},
 347:Generated_Source\PSoC4/cyfitter_cfg.c **** 			{0xD4u, 0x01u},
 348:Generated_Source\PSoC4/cyfitter_cfg.c **** 			{0xD8u, 0x04u},
 349:Generated_Source\PSoC4/cyfitter_cfg.c **** 			{0xDAu, 0x04u},
 350:Generated_Source\PSoC4/cyfitter_cfg.c **** 			{0xDBu, 0x04u},
 351:Generated_Source\PSoC4/cyfitter_cfg.c **** 			{0xDFu, 0x01u},
 352:Generated_Source\PSoC4/cyfitter_cfg.c **** 			{0xE0u, 0x40u},
 353:Generated_Source\PSoC4/cyfitter_cfg.c **** 			{0xE2u, 0x40u},
 354:Generated_Source\PSoC4/cyfitter_cfg.c **** 			{0xE4u, 0x40u},
 355:Generated_Source\PSoC4/cyfitter_cfg.c **** 			{0xE5u, 0x40u},
 356:Generated_Source\PSoC4/cyfitter_cfg.c **** 			{0xE6u, 0x80u},
 357:Generated_Source\PSoC4/cyfitter_cfg.c **** 			{0xE8u, 0x80u},
 358:Generated_Source\PSoC4/cyfitter_cfg.c **** 			{0xEAu, 0x80u},
 359:Generated_Source\PSoC4/cyfitter_cfg.c **** 			{0xECu, 0x80u},
 360:Generated_Source\PSoC4/cyfitter_cfg.c **** 			{0xEEu, 0x80u},
 361:Generated_Source\PSoC4/cyfitter_cfg.c **** 			{0x02u, 0x02u},
 362:Generated_Source\PSoC4/cyfitter_cfg.c **** 			{0x0Bu, 0x40u},
 363:Generated_Source\PSoC4/cyfitter_cfg.c **** 			{0x1Au, 0x40u},
 364:Generated_Source\PSoC4/cyfitter_cfg.c **** 			{0x1Bu, 0x08u},
 365:Generated_Source\PSoC4/cyfitter_cfg.c **** 			{0x41u, 0x01u},
 366:Generated_Source\PSoC4/cyfitter_cfg.c **** 			{0x46u, 0x80u},
 367:Generated_Source\PSoC4/cyfitter_cfg.c **** 			{0x49u, 0x05u},
 368:Generated_Source\PSoC4/cyfitter_cfg.c **** 			{0x4Bu, 0x40u},
 369:Generated_Source\PSoC4/cyfitter_cfg.c **** 			{0x4Eu, 0x02u},
 370:Generated_Source\PSoC4/cyfitter_cfg.c **** 			{0x51u, 0x01u},
 371:Generated_Source\PSoC4/cyfitter_cfg.c **** 			{0x52u, 0x02u},
 372:Generated_Source\PSoC4/cyfitter_cfg.c **** 			{0x59u, 0x05u},
 373:Generated_Source\PSoC4/cyfitter_cfg.c **** 			{0x5Au, 0x40u},
 374:Generated_Source\PSoC4/cyfitter_cfg.c **** 			{0x5Du, 0x40u},
 375:Generated_Source\PSoC4/cyfitter_cfg.c **** 			{0x5Fu, 0x2Au},
 376:Generated_Source\PSoC4/cyfitter_cfg.c **** 			{0x6Du, 0xA0u},
 377:Generated_Source\PSoC4/cyfitter_cfg.c **** 			{0x6Fu, 0xA0u},
 378:Generated_Source\PSoC4/cyfitter_cfg.c **** 			{0x72u, 0x80u},
 379:Generated_Source\PSoC4/cyfitter_cfg.c **** 			{0x73u, 0x40u},
 380:Generated_Source\PSoC4/cyfitter_cfg.c **** 			{0x81u, 0x10u},
 381:Generated_Source\PSoC4/cyfitter_cfg.c **** 			{0x87u, 0x80u},
 382:Generated_Source\PSoC4/cyfitter_cfg.c **** 			{0x89u, 0x40u},
 383:Generated_Source\PSoC4/cyfitter_cfg.c **** 			{0x8Fu, 0x20u},
ARM GAS  C:\Users\josue\AppData\Local\Temp\ccwVhq2H.s 			page 13


 384:Generated_Source\PSoC4/cyfitter_cfg.c **** 			{0x91u, 0x40u},
 385:Generated_Source\PSoC4/cyfitter_cfg.c **** 			{0x9Bu, 0x2Au},
 386:Generated_Source\PSoC4/cyfitter_cfg.c **** 			{0xA7u, 0x08u},
 387:Generated_Source\PSoC4/cyfitter_cfg.c **** 			{0xA9u, 0x40u},
 388:Generated_Source\PSoC4/cyfitter_cfg.c **** 			{0xABu, 0x22u},
 389:Generated_Source\PSoC4/cyfitter_cfg.c **** 			{0xB7u, 0x08u},
 390:Generated_Source\PSoC4/cyfitter_cfg.c **** 			{0xC0u, 0x01u},
 391:Generated_Source\PSoC4/cyfitter_cfg.c **** 			{0xC2u, 0x08u},
 392:Generated_Source\PSoC4/cyfitter_cfg.c **** 			{0xD0u, 0x81u},
 393:Generated_Source\PSoC4/cyfitter_cfg.c **** 			{0xD2u, 0x18u},
 394:Generated_Source\PSoC4/cyfitter_cfg.c **** 			{0xD6u, 0xFBu},
 395:Generated_Source\PSoC4/cyfitter_cfg.c **** 			{0xE2u, 0xC0u},
 396:Generated_Source\PSoC4/cyfitter_cfg.c **** 			{0xE6u, 0x20u},
 397:Generated_Source\PSoC4/cyfitter_cfg.c **** 			{0xEAu, 0x10u},
 398:Generated_Source\PSoC4/cyfitter_cfg.c **** 			{0x03u, 0x04u},
 399:Generated_Source\PSoC4/cyfitter_cfg.c **** 			{0x05u, 0x10u},
 400:Generated_Source\PSoC4/cyfitter_cfg.c **** 			{0x06u, 0x40u},
 401:Generated_Source\PSoC4/cyfitter_cfg.c **** 			{0x0Eu, 0x02u},
 402:Generated_Source\PSoC4/cyfitter_cfg.c **** 			{0x57u, 0x20u},
 403:Generated_Source\PSoC4/cyfitter_cfg.c **** 			{0x68u, 0x01u},
 404:Generated_Source\PSoC4/cyfitter_cfg.c **** 			{0x6Cu, 0x04u},
 405:Generated_Source\PSoC4/cyfitter_cfg.c **** 			{0x8Au, 0x40u},
 406:Generated_Source\PSoC4/cyfitter_cfg.c **** 			{0xC0u, 0xE0u},
 407:Generated_Source\PSoC4/cyfitter_cfg.c **** 			{0xC2u, 0x80u},
 408:Generated_Source\PSoC4/cyfitter_cfg.c **** 			{0xD4u, 0x40u},
 409:Generated_Source\PSoC4/cyfitter_cfg.c **** 			{0xDAu, 0xC0u},
 410:Generated_Source\PSoC4/cyfitter_cfg.c **** 			{0x52u, 0x02u},
 411:Generated_Source\PSoC4/cyfitter_cfg.c **** 			{0x53u, 0x80u},
 412:Generated_Source\PSoC4/cyfitter_cfg.c **** 			{0x54u, 0x40u},
 413:Generated_Source\PSoC4/cyfitter_cfg.c **** 			{0x82u, 0x02u},
 414:Generated_Source\PSoC4/cyfitter_cfg.c **** 			{0x87u, 0x20u},
 415:Generated_Source\PSoC4/cyfitter_cfg.c **** 			{0x88u, 0x41u},
 416:Generated_Source\PSoC4/cyfitter_cfg.c **** 			{0x8Fu, 0x80u},
 417:Generated_Source\PSoC4/cyfitter_cfg.c **** 			{0xA4u, 0x01u},
 418:Generated_Source\PSoC4/cyfitter_cfg.c **** 			{0xA7u, 0x20u},
 419:Generated_Source\PSoC4/cyfitter_cfg.c **** 			{0xA9u, 0x10u},
 420:Generated_Source\PSoC4/cyfitter_cfg.c **** 			{0xAAu, 0x01u},
 421:Generated_Source\PSoC4/cyfitter_cfg.c **** 			{0xABu, 0x04u},
 422:Generated_Source\PSoC4/cyfitter_cfg.c **** 			{0xB4u, 0x04u},
 423:Generated_Source\PSoC4/cyfitter_cfg.c **** 			{0xD4u, 0xE0u},
 424:Generated_Source\PSoC4/cyfitter_cfg.c **** 			{0xE2u, 0x80u},
 425:Generated_Source\PSoC4/cyfitter_cfg.c **** 			{0xE6u, 0x10u},
 426:Generated_Source\PSoC4/cyfitter_cfg.c **** 			{0xE8u, 0x80u},
 427:Generated_Source\PSoC4/cyfitter_cfg.c **** 			{0xECu, 0xA0u},
 428:Generated_Source\PSoC4/cyfitter_cfg.c **** 			{0x05u, 0x08u},
 429:Generated_Source\PSoC4/cyfitter_cfg.c **** 			{0x89u, 0x08u},
 430:Generated_Source\PSoC4/cyfitter_cfg.c **** 			{0xC0u, 0x04u},
 431:Generated_Source\PSoC4/cyfitter_cfg.c **** 			{0xE2u, 0x01u},
 432:Generated_Source\PSoC4/cyfitter_cfg.c **** 			{0x01u, 0x01u},
 433:Generated_Source\PSoC4/cyfitter_cfg.c **** 			{0x10u, 0x01u},
 434:Generated_Source\PSoC4/cyfitter_cfg.c **** 		};
 435:Generated_Source\PSoC4/cyfitter_cfg.c **** 
 436:Generated_Source\PSoC4/cyfitter_cfg.c **** 
 437:Generated_Source\PSoC4/cyfitter_cfg.c **** 
 438:Generated_Source\PSoC4/cyfitter_cfg.c **** 		CYPACKED typedef struct {
 439:Generated_Source\PSoC4/cyfitter_cfg.c **** 			void CYFAR *address;
 440:Generated_Source\PSoC4/cyfitter_cfg.c **** 			uint16 size;
ARM GAS  C:\Users\josue\AppData\Local\Temp\ccwVhq2H.s 			page 14


 441:Generated_Source\PSoC4/cyfitter_cfg.c **** 		} CYPACKED_ATTR cfg_memset_t;
 442:Generated_Source\PSoC4/cyfitter_cfg.c **** 
 443:Generated_Source\PSoC4/cyfitter_cfg.c **** 		static const cfg_memset_t CYCODE cfg_memset_list[] = {
 444:Generated_Source\PSoC4/cyfitter_cfg.c **** 			/* address, size */
 445:Generated_Source\PSoC4/cyfitter_cfg.c **** 			{(void CYFAR *)(CYDEV_UDB_P0_U0_BASE), 1024u},
 446:Generated_Source\PSoC4/cyfitter_cfg.c **** 			{(void CYFAR *)(CYDEV_UDB_DSI0_BASE), 1024u},
 447:Generated_Source\PSoC4/cyfitter_cfg.c **** 		};
 448:Generated_Source\PSoC4/cyfitter_cfg.c **** 
 449:Generated_Source\PSoC4/cyfitter_cfg.c **** 		uint8 CYDATA i;
 450:Generated_Source\PSoC4/cyfitter_cfg.c **** 
 451:Generated_Source\PSoC4/cyfitter_cfg.c **** 		/* Zero out critical memory blocks before beginning configuration */
 452:Generated_Source\PSoC4/cyfitter_cfg.c **** 		for (i = 0u; i < (sizeof(cfg_memset_list)/sizeof(cfg_memset_list[0])); i++)
 281              		.loc 1 452 0
 282 009a 0024     		movs	r4, #0
 283 009c 0FE0     		b	.L14
 284              	.LVL19:
 285              	.L15:
 286              	.LBB4:
 453:Generated_Source\PSoC4/cyfitter_cfg.c **** 		{
 454:Generated_Source\PSoC4/cyfitter_cfg.c **** 			const cfg_memset_t CYCODE * CYDATA ms = &cfg_memset_list[i];
 455:Generated_Source\PSoC4/cyfitter_cfg.c **** 			CYMEMZERO(ms->address, (size_t)(uint32)(ms->size));
 287              		.loc 1 455 0 discriminator 3
 288 009e 3148     		ldr	r0, .L16+4
 289 00a0 6200     		lsls	r2, r4, #1
 290 00a2 1319     		adds	r3, r2, r4
 291 00a4 5900     		lsls	r1, r3, #1
 292 00a6 0B00     		movs	r3, r1
 293 00a8 4118     		adds	r1, r0, r1
 294 00aa 8988     		ldrh	r1, [r1, #4]
 295 00ac 1A5A     		ldrh	r2, [r3, r0]
 296 00ae C318     		adds	r3, r0, r3
 297 00b0 5888     		ldrh	r0, [r3, #2]
 298 00b2 0004     		lsls	r0, r0, #16
 299 00b4 1043     		orrs	r0, r2
 300 00b6 FFF7FEFF 		bl	CYMEMZERO
 301              	.LVL20:
 302              	.LBE4:
 452:Generated_Source\PSoC4/cyfitter_cfg.c **** 		{
 303              		.loc 1 452 0 discriminator 3
 304 00ba 0134     		adds	r4, r4, #1
 305              	.LVL21:
 306 00bc E4B2     		uxtb	r4, r4
 307              	.LVL22:
 308              	.L14:
 452:Generated_Source\PSoC4/cyfitter_cfg.c **** 		{
 309              		.loc 1 452 0 is_stmt 0 discriminator 1
 310 00be 012C     		cmp	r4, #1
 311 00c0 EDD9     		bls	.L15
 456:Generated_Source\PSoC4/cyfitter_cfg.c **** 		}
 457:Generated_Source\PSoC4/cyfitter_cfg.c **** 
 458:Generated_Source\PSoC4/cyfitter_cfg.c **** 		cfg_write_bytes32(cy_cfg_addr_table, cy_cfg_data_table);
 312              		.loc 1 458 0 is_stmt 1
 313 00c2 2849     		ldr	r1, .L16+4
 314 00c4 0C31     		adds	r1, r1, #12
 315 00c6 2848     		ldr	r0, .L16+8
 316 00c8 0830     		adds	r0, r0, #8
 317 00ca FFF7FEFF 		bl	cfg_write_bytes32
ARM GAS  C:\Users\josue\AppData\Local\Temp\ccwVhq2H.s 			page 15


 318              	.LVL23:
 459:Generated_Source\PSoC4/cyfitter_cfg.c **** 
 460:Generated_Source\PSoC4/cyfitter_cfg.c **** 		/* HSIOM Starting address: CYDEV_HSIOM_BASE */
 461:Generated_Source\PSoC4/cyfitter_cfg.c **** 		CY_SET_REG32((void *)(CYDEV_HSIOM_BASE), 0x00000003u);
 319              		.loc 1 461 0
 320 00ce 0322     		movs	r2, #3
 321 00d0 264B     		ldr	r3, .L16+12
 322 00d2 1A60     		str	r2, [r3]
 462:Generated_Source\PSoC4/cyfitter_cfg.c **** 		CY_SET_REG32((void *)(CYREG_HSIOM_PORT_SEL1), 0x00003330u);
 323              		.loc 1 462 0
 324 00d4 2649     		ldr	r1, .L16+16
 325 00d6 274B     		ldr	r3, .L16+20
 326 00d8 1960     		str	r1, [r3]
 463:Generated_Source\PSoC4/cyfitter_cfg.c **** 		CY_SET_REG32((void *)(CYREG_HSIOM_PORT_SEL3), 0x0000EE00u);
 327              		.loc 1 463 0
 328 00da EE21     		movs	r1, #238
 329 00dc 0902     		lsls	r1, r1, #8
 330 00de 264B     		ldr	r3, .L16+24
 331 00e0 1960     		str	r1, [r3]
 464:Generated_Source\PSoC4/cyfitter_cfg.c **** 
 465:Generated_Source\PSoC4/cyfitter_cfg.c **** 		/* UDB_PA_0 Starting address: CYDEV_UDB_PA0_BASE */
 466:Generated_Source\PSoC4/cyfitter_cfg.c **** 		CY_SET_REG32((void *)(CYDEV_UDB_PA0_BASE), 0x00990000u);
 332              		.loc 1 466 0
 333 00e2 9923     		movs	r3, #153
 334 00e4 1B04     		lsls	r3, r3, #16
 335 00e6 2549     		ldr	r1, .L16+28
 336 00e8 0B60     		str	r3, [r1]
 467:Generated_Source\PSoC4/cyfitter_cfg.c **** 		CY_SET_REG32((void *)(CYREG_UDB_PA0_CFG8), 0x00010000u);
 337              		.loc 1 467 0
 338 00ea 8020     		movs	r0, #128
 339 00ec 4002     		lsls	r0, r0, #9
 340 00ee 2449     		ldr	r1, .L16+32
 341 00f0 0860     		str	r0, [r1]
 468:Generated_Source\PSoC4/cyfitter_cfg.c **** 
 469:Generated_Source\PSoC4/cyfitter_cfg.c **** 		/* UDB_PA_1 Starting address: CYDEV_UDB_PA1_BASE */
 470:Generated_Source\PSoC4/cyfitter_cfg.c **** 		CY_SET_REG32((void *)(CYDEV_UDB_PA1_BASE), 0x00990000u);
 342              		.loc 1 470 0
 343 00f2 2449     		ldr	r1, .L16+36
 344 00f4 0B60     		str	r3, [r1]
 471:Generated_Source\PSoC4/cyfitter_cfg.c **** 		CY_SET_REG32((void *)(CYREG_UDB_PA1_CFG8), 0x00630000u);
 345              		.loc 1 471 0
 346 00f6 C620     		movs	r0, #198
 347 00f8 C003     		lsls	r0, r0, #15
 348 00fa 2349     		ldr	r1, .L16+40
 349 00fc 0860     		str	r0, [r1]
 472:Generated_Source\PSoC4/cyfitter_cfg.c **** 
 473:Generated_Source\PSoC4/cyfitter_cfg.c **** 		/* UDB_PA_2 Starting address: CYDEV_UDB_PA2_BASE */
 474:Generated_Source\PSoC4/cyfitter_cfg.c **** 		CY_SET_REG32((void *)(CYDEV_UDB_PA2_BASE), 0x00990000u);
 350              		.loc 1 474 0
 351 00fe 2349     		ldr	r1, .L16+44
 352 0100 0B60     		str	r3, [r1]
 475:Generated_Source\PSoC4/cyfitter_cfg.c **** 
 476:Generated_Source\PSoC4/cyfitter_cfg.c **** 		/* UDB_PA_3 Starting address: CYDEV_UDB_PA3_BASE */
 477:Generated_Source\PSoC4/cyfitter_cfg.c **** 		CY_SET_REG32((void *)(CYDEV_UDB_PA3_BASE), 0x00990000u);
 353              		.loc 1 477 0
 354 0102 2349     		ldr	r1, .L16+48
 355 0104 0B60     		str	r3, [r1]
ARM GAS  C:\Users\josue\AppData\Local\Temp\ccwVhq2H.s 			page 16


 478:Generated_Source\PSoC4/cyfitter_cfg.c **** 
 479:Generated_Source\PSoC4/cyfitter_cfg.c **** 		/* INT_SELECT Starting address: CYDEV_CPUSS_INT_SEL */
 480:Generated_Source\PSoC4/cyfitter_cfg.c **** 		CY_SET_REG32((void *)(CYREG_CPUSS_INT_SEL), 0x00000003u);
 356              		.loc 1 480 0
 357 0106 234B     		ldr	r3, .L16+52
 358 0108 1A60     		str	r2, [r3]
 481:Generated_Source\PSoC4/cyfitter_cfg.c **** 
 482:Generated_Source\PSoC4/cyfitter_cfg.c **** 		/* INT_CONFIG Starting address: CYDEV_UDB_INT_CFG */
 483:Generated_Source\PSoC4/cyfitter_cfg.c **** 		CY_SET_REG32((void *)(CYREG_UDB_INT_CFG), 0x00000003u);
 359              		.loc 1 483 0
 360 010a 234B     		ldr	r3, .L16+56
 361 010c 1A60     		str	r2, [r3]
 484:Generated_Source\PSoC4/cyfitter_cfg.c **** 
 485:Generated_Source\PSoC4/cyfitter_cfg.c **** 		/* Enable UDB array and digital routing */
 486:Generated_Source\PSoC4/cyfitter_cfg.c **** 		CY_SET_XTND_REG8((void *)CYREG_UDB_UDBIF_WAIT_CFG, (uint8)((CY_GET_XTND_REG8((void *)CYREG_UDB_UD
 362              		.loc 1 486 0
 363 010e 2349     		ldr	r1, .L16+60
 364 0110 0B78     		ldrb	r3, [r1]
 365 0112 3932     		adds	r2, r2, #57
 366 0114 9343     		bics	r3, r2
 367 0116 1422     		movs	r2, #20
 368 0118 1343     		orrs	r3, r2
 369 011a DBB2     		uxtb	r3, r3
 370 011c 0B70     		strb	r3, [r1]
 487:Generated_Source\PSoC4/cyfitter_cfg.c **** 		CY_SET_XTND_REG8((void *)CYREG_UDB_UDBIF_BANK_CTL, (uint8)(CY_GET_XTND_REG8((void *)CYREG_UDB_UDB
 371              		.loc 1 487 0
 372 011e 204A     		ldr	r2, .L16+64
 373 0120 1178     		ldrb	r1, [r2]
 374 0122 1623     		movs	r3, #22
 375 0124 0B43     		orrs	r3, r1
 376 0126 DBB2     		uxtb	r3, r3
 377 0128 1370     		strb	r3, [r2]
 378              	.LBE3:
 488:Generated_Source\PSoC4/cyfitter_cfg.c **** 	}
 489:Generated_Source\PSoC4/cyfitter_cfg.c **** 
 490:Generated_Source\PSoC4/cyfitter_cfg.c **** 	/* Perform second pass device configuration. These items must be configured in specific order afte
 491:Generated_Source\PSoC4/cyfitter_cfg.c **** 	/* IOPINS0_0 Starting address: CYDEV_GPIO_PRT0_BASE */
 492:Generated_Source\PSoC4/cyfitter_cfg.c **** 	CY_SET_REG32((void *)(CYDEV_GPIO_PRT0_BASE), 0x00000001u);
 379              		.loc 1 492 0
 380 012a 0123     		movs	r3, #1
 381 012c 1D4A     		ldr	r2, .L16+68
 382 012e 1360     		str	r3, [r2]
 493:Generated_Source\PSoC4/cyfitter_cfg.c **** 	CY_SET_REG32((void *)(CYREG_GPIO_PRT0_PC), 0x006006DEu);
 383              		.loc 1 493 0
 384 0130 1D49     		ldr	r1, .L16+72
 385 0132 1E4A     		ldr	r2, .L16+76
 386 0134 1160     		str	r1, [r2]
 494:Generated_Source\PSoC4/cyfitter_cfg.c **** 
 495:Generated_Source\PSoC4/cyfitter_cfg.c **** 	/* IOPINS0_1 Starting address: CYDEV_GPIO_PRT1_BASE */
 496:Generated_Source\PSoC4/cyfitter_cfg.c **** 	CY_SET_REG32((void *)(CYDEV_GPIO_PRT1_BASE), 0x0000000Eu);
 387              		.loc 1 496 0
 388 0136 0E21     		movs	r1, #14
 389 0138 1D4A     		ldr	r2, .L16+80
 390 013a 1160     		str	r1, [r2]
 497:Generated_Source\PSoC4/cyfitter_cfg.c **** 	CY_SET_REG32((void *)(CYREG_GPIO_PRT1_PC), 0x00000DB0u);
 391              		.loc 1 497 0
 392 013c DB21     		movs	r1, #219
ARM GAS  C:\Users\josue\AppData\Local\Temp\ccwVhq2H.s 			page 17


 393 013e 0901     		lsls	r1, r1, #4
 394 0140 1C4A     		ldr	r2, .L16+84
 395 0142 1160     		str	r1, [r2]
 498:Generated_Source\PSoC4/cyfitter_cfg.c **** 
 499:Generated_Source\PSoC4/cyfitter_cfg.c **** 	/* IOPINS0_2 Starting address: CYDEV_GPIO_PRT2_BASE */
 500:Generated_Source\PSoC4/cyfitter_cfg.c **** 	CY_SET_REG32((void *)(CYREG_GPIO_PRT2_PC), 0x001B6DB6u);
 396              		.loc 1 500 0
 397 0144 1C49     		ldr	r1, .L16+88
 398 0146 1D4A     		ldr	r2, .L16+92
 399 0148 1160     		str	r1, [r2]
 501:Generated_Source\PSoC4/cyfitter_cfg.c **** 
 502:Generated_Source\PSoC4/cyfitter_cfg.c **** 	/* IOPINS0_3 Starting address: CYDEV_GPIO_PRT3_BASE */
 503:Generated_Source\PSoC4/cyfitter_cfg.c **** 	CY_SET_REG32((void *)(CYDEV_GPIO_PRT3_BASE), 0x00000001u);
 400              		.loc 1 503 0
 401 014a 1D4A     		ldr	r2, .L16+96
 402 014c 1360     		str	r3, [r2]
 504:Generated_Source\PSoC4/cyfitter_cfg.c **** 	CY_SET_REG32((void *)(CYREG_GPIO_PRT3_PC), 0x00000D8Au);
 403              		.loc 1 504 0
 404 014e 1D4A     		ldr	r2, .L16+100
 405 0150 1D4B     		ldr	r3, .L16+104
 406 0152 1A60     		str	r2, [r3]
 505:Generated_Source\PSoC4/cyfitter_cfg.c **** 
 506:Generated_Source\PSoC4/cyfitter_cfg.c **** 
 507:Generated_Source\PSoC4/cyfitter_cfg.c **** 	/* Setup clocks based on selections from Clock DWR */
 508:Generated_Source\PSoC4/cyfitter_cfg.c **** 	ClockSetup();
 407              		.loc 1 508 0
 408 0154 FFF754FF 		bl	ClockSetup
 409              	.LVL24:
 509:Generated_Source\PSoC4/cyfitter_cfg.c **** 
 510:Generated_Source\PSoC4/cyfitter_cfg.c **** 	/* Perform basic analog initialization to defaults */
 511:Generated_Source\PSoC4/cyfitter_cfg.c **** 	AnalogSetDefault();
 410              		.loc 1 511 0
 411 0158 FFF7FEFF 		bl	AnalogSetDefault
 412              	.LVL25:
 512:Generated_Source\PSoC4/cyfitter_cfg.c **** 
 513:Generated_Source\PSoC4/cyfitter_cfg.c **** }
 413              		.loc 1 513 0
 414              		@ sp needed
 415              	.LVL26:
 416 015c 10BD     		pop	{r4, pc}
 417              	.L17:
 418 015e C046     		.align	2
 419              	.L16:
 420 0160 1C700F40 		.word	1074753564
 421 0164 00000000 		.word	.LANCHOR0
 422 0168 00010000 		.word	.LANCHOR1
 423 016c 00000240 		.word	1073872896
 424 0170 30330000 		.word	13104
 425 0174 00010240 		.word	1073873152
 426 0178 00030240 		.word	1073873664
 427 017c 00500F40 		.word	1074745344
 428 0180 08500F40 		.word	1074745352
 429 0184 10500F40 		.word	1074745360
 430 0188 18500F40 		.word	1074745368
 431 018c 20500F40 		.word	1074745376
 432 0190 30500F40 		.word	1074745392
 433 0194 20001040 		.word	1074790432
ARM GAS  C:\Users\josue\AppData\Local\Temp\ccwVhq2H.s 			page 18


 434 0198 00800F40 		.word	1074757632
 435 019c 01700F40 		.word	1074753537
 436 01a0 00700F40 		.word	1074753536
 437 01a4 00000440 		.word	1074003968
 438 01a8 DE066000 		.word	6293214
 439 01ac 08000440 		.word	1074003976
 440 01b0 00010440 		.word	1074004224
 441 01b4 08010440 		.word	1074004232
 442 01b8 B66D1B00 		.word	1797558
 443 01bc 08020440 		.word	1074004488
 444 01c0 00030440 		.word	1074004736
 445 01c4 8A0D0000 		.word	3466
 446 01c8 08030440 		.word	1074004744
 447              		.cfi_endproc
 448              	.LFE7:
 449              		.size	cyfitter_cfg, .-cyfitter_cfg
 450              		.section	.rodata
 451              		.align	2
 452              		.set	.LANCHOR0,. + 0
 453              		.set	.LANCHOR1,. + 256
 454              		.type	cfg_memset_list.4911, %object
 455              		.size	cfg_memset_list.4911, 12
 456              	cfg_memset_list.4911:
 457 0000 00300F40 		.word	1074737152
 458 0004 0004     		.short	1024
 459 0006 00400F40 		.4byte	1074741248
 460 000a 0004     		.short	1024
 461              		.type	cy_cfg_data_table.4906, %object
 462              		.size	cy_cfg_data_table.4906, 250
 463              	cy_cfg_data_table.4906:
 464 000c 83       		.byte	-125
 465 000d 0D       		.byte	13
 466 000e 8B       		.byte	-117
 467 000f 08       		.byte	8
 468 0010 E4       		.byte	-28
 469 0011 80       		.byte	-128
 470 0012 40       		.byte	64
 471 0013 45       		.byte	69
 472 0014 49       		.byte	73
 473 0015 FF       		.byte	-1
 474 0016 4A       		.byte	74
 475 0017 FF       		.byte	-1
 476 0018 4B       		.byte	75
 477 0019 FF       		.byte	-1
 478 001a 4F       		.byte	79
 479 001b 01       		.byte	1
 480 001c 50       		.byte	80
 481 001d 18       		.byte	24
 482 001e 5A       		.byte	90
 483 001f 04       		.byte	4
 484 0020 5B       		.byte	91
 485 0021 04       		.byte	4
 486 0022 5F       		.byte	95
 487 0023 01       		.byte	1
 488 0024 60       		.byte	96
 489 0025 40       		.byte	64
 490 0026 62       		.byte	98
ARM GAS  C:\Users\josue\AppData\Local\Temp\ccwVhq2H.s 			page 19


 491 0027 40       		.byte	64
 492 0028 64       		.byte	100
 493 0029 40       		.byte	64
 494 002a 65       		.byte	101
 495 002b 40       		.byte	64
 496 002c 66       		.byte	102
 497 002d 80       		.byte	-128
 498 002e 68       		.byte	104
 499 002f 80       		.byte	-128
 500 0030 6A       		.byte	106
 501 0031 80       		.byte	-128
 502 0032 6C       		.byte	108
 503 0033 80       		.byte	-128
 504 0034 6E       		.byte	110
 505 0035 80       		.byte	-128
 506 0036 8E       		.byte	-114
 507 0037 01       		.byte	1
 508 0038 92       		.byte	-110
 509 0039 01       		.byte	1
 510 003a B0       		.byte	-80
 511 003b 01       		.byte	1
 512 003c B2       		.byte	-78
 513 003d 01       		.byte	1
 514 003e BE       		.byte	-66
 515 003f 01       		.byte	1
 516 0040 C0       		.byte	-64
 517 0041 54       		.byte	84
 518 0042 C5       		.byte	-59
 519 0043 EC       		.byte	-20
 520 0044 C7       		.byte	-57
 521 0045 20       		.byte	32
 522 0046 C8       		.byte	-56
 523 0047 23       		.byte	35
 524 0048 C9       		.byte	-55
 525 0049 FF       		.byte	-1
 526 004a CA       		.byte	-54
 527 004b FF       		.byte	-1
 528 004c CB       		.byte	-53
 529 004d FF       		.byte	-1
 530 004e CD       		.byte	-51
 531 004f 83       		.byte	-125
 532 0050 CE       		.byte	-50
 533 0051 03       		.byte	3
 534 0052 CF       		.byte	-49
 535 0053 01       		.byte	1
 536 0054 D0       		.byte	-48
 537 0055 18       		.byte	24
 538 0056 D2       		.byte	-46
 539 0057 80       		.byte	-128
 540 0058 D4       		.byte	-44
 541 0059 01       		.byte	1
 542 005a D8       		.byte	-40
 543 005b 04       		.byte	4
 544 005c DA       		.byte	-38
 545 005d 04       		.byte	4
 546 005e DB       		.byte	-37
 547 005f 04       		.byte	4
ARM GAS  C:\Users\josue\AppData\Local\Temp\ccwVhq2H.s 			page 20


 548 0060 DF       		.byte	-33
 549 0061 01       		.byte	1
 550 0062 E0       		.byte	-32
 551 0063 40       		.byte	64
 552 0064 E2       		.byte	-30
 553 0065 40       		.byte	64
 554 0066 E4       		.byte	-28
 555 0067 40       		.byte	64
 556 0068 E5       		.byte	-27
 557 0069 40       		.byte	64
 558 006a E6       		.byte	-26
 559 006b 80       		.byte	-128
 560 006c E8       		.byte	-24
 561 006d 80       		.byte	-128
 562 006e EA       		.byte	-22
 563 006f 80       		.byte	-128
 564 0070 EC       		.byte	-20
 565 0071 80       		.byte	-128
 566 0072 EE       		.byte	-18
 567 0073 80       		.byte	-128
 568 0074 02       		.byte	2
 569 0075 02       		.byte	2
 570 0076 0B       		.byte	11
 571 0077 40       		.byte	64
 572 0078 1A       		.byte	26
 573 0079 40       		.byte	64
 574 007a 1B       		.byte	27
 575 007b 08       		.byte	8
 576 007c 41       		.byte	65
 577 007d 01       		.byte	1
 578 007e 46       		.byte	70
 579 007f 80       		.byte	-128
 580 0080 49       		.byte	73
 581 0081 05       		.byte	5
 582 0082 4B       		.byte	75
 583 0083 40       		.byte	64
 584 0084 4E       		.byte	78
 585 0085 02       		.byte	2
 586 0086 51       		.byte	81
 587 0087 01       		.byte	1
 588 0088 52       		.byte	82
 589 0089 02       		.byte	2
 590 008a 59       		.byte	89
 591 008b 05       		.byte	5
 592 008c 5A       		.byte	90
 593 008d 40       		.byte	64
 594 008e 5D       		.byte	93
 595 008f 40       		.byte	64
 596 0090 5F       		.byte	95
 597 0091 2A       		.byte	42
 598 0092 6D       		.byte	109
 599 0093 A0       		.byte	-96
 600 0094 6F       		.byte	111
 601 0095 A0       		.byte	-96
 602 0096 72       		.byte	114
 603 0097 80       		.byte	-128
 604 0098 73       		.byte	115
ARM GAS  C:\Users\josue\AppData\Local\Temp\ccwVhq2H.s 			page 21


 605 0099 40       		.byte	64
 606 009a 81       		.byte	-127
 607 009b 10       		.byte	16
 608 009c 87       		.byte	-121
 609 009d 80       		.byte	-128
 610 009e 89       		.byte	-119
 611 009f 40       		.byte	64
 612 00a0 8F       		.byte	-113
 613 00a1 20       		.byte	32
 614 00a2 91       		.byte	-111
 615 00a3 40       		.byte	64
 616 00a4 9B       		.byte	-101
 617 00a5 2A       		.byte	42
 618 00a6 A7       		.byte	-89
 619 00a7 08       		.byte	8
 620 00a8 A9       		.byte	-87
 621 00a9 40       		.byte	64
 622 00aa AB       		.byte	-85
 623 00ab 22       		.byte	34
 624 00ac B7       		.byte	-73
 625 00ad 08       		.byte	8
 626 00ae C0       		.byte	-64
 627 00af 01       		.byte	1
 628 00b0 C2       		.byte	-62
 629 00b1 08       		.byte	8
 630 00b2 D0       		.byte	-48
 631 00b3 81       		.byte	-127
 632 00b4 D2       		.byte	-46
 633 00b5 18       		.byte	24
 634 00b6 D6       		.byte	-42
 635 00b7 FB       		.byte	-5
 636 00b8 E2       		.byte	-30
 637 00b9 C0       		.byte	-64
 638 00ba E6       		.byte	-26
 639 00bb 20       		.byte	32
 640 00bc EA       		.byte	-22
 641 00bd 10       		.byte	16
 642 00be 03       		.byte	3
 643 00bf 04       		.byte	4
 644 00c0 05       		.byte	5
 645 00c1 10       		.byte	16
 646 00c2 06       		.byte	6
 647 00c3 40       		.byte	64
 648 00c4 0E       		.byte	14
 649 00c5 02       		.byte	2
 650 00c6 57       		.byte	87
 651 00c7 20       		.byte	32
 652 00c8 68       		.byte	104
 653 00c9 01       		.byte	1
 654 00ca 6C       		.byte	108
 655 00cb 04       		.byte	4
 656 00cc 8A       		.byte	-118
 657 00cd 40       		.byte	64
 658 00ce C0       		.byte	-64
 659 00cf E0       		.byte	-32
 660 00d0 C2       		.byte	-62
 661 00d1 80       		.byte	-128
ARM GAS  C:\Users\josue\AppData\Local\Temp\ccwVhq2H.s 			page 22


 662 00d2 D4       		.byte	-44
 663 00d3 40       		.byte	64
 664 00d4 DA       		.byte	-38
 665 00d5 C0       		.byte	-64
 666 00d6 52       		.byte	82
 667 00d7 02       		.byte	2
 668 00d8 53       		.byte	83
 669 00d9 80       		.byte	-128
 670 00da 54       		.byte	84
 671 00db 40       		.byte	64
 672 00dc 82       		.byte	-126
 673 00dd 02       		.byte	2
 674 00de 87       		.byte	-121
 675 00df 20       		.byte	32
 676 00e0 88       		.byte	-120
 677 00e1 41       		.byte	65
 678 00e2 8F       		.byte	-113
 679 00e3 80       		.byte	-128
 680 00e4 A4       		.byte	-92
 681 00e5 01       		.byte	1
 682 00e6 A7       		.byte	-89
 683 00e7 20       		.byte	32
 684 00e8 A9       		.byte	-87
 685 00e9 10       		.byte	16
 686 00ea AA       		.byte	-86
 687 00eb 01       		.byte	1
 688 00ec AB       		.byte	-85
 689 00ed 04       		.byte	4
 690 00ee B4       		.byte	-76
 691 00ef 04       		.byte	4
 692 00f0 D4       		.byte	-44
 693 00f1 E0       		.byte	-32
 694 00f2 E2       		.byte	-30
 695 00f3 80       		.byte	-128
 696 00f4 E6       		.byte	-26
 697 00f5 10       		.byte	16
 698 00f6 E8       		.byte	-24
 699 00f7 80       		.byte	-128
 700 00f8 EC       		.byte	-20
 701 00f9 A0       		.byte	-96
 702 00fa 05       		.byte	5
 703 00fb 08       		.byte	8
 704 00fc 89       		.byte	-119
 705 00fd 08       		.byte	8
 706 00fe C0       		.byte	-64
 707 00ff 04       		.byte	4
 708 0100 E2       		.byte	-30
 709 0101 01       		.byte	1
 710 0102 01       		.byte	1
 711 0103 01       		.byte	1
 712 0104 10       		.byte	16
 713 0105 01       		.byte	1
 714 0106 0000     		.space	2
 715              		.type	cy_cfg_addr_table.4905, %object
 716              		.size	cy_cfg_addr_table.4905, 32
 717              	cy_cfg_addr_table.4905:
 718 0108 01000F40 		.word	1074724865
ARM GAS  C:\Users\josue\AppData\Local\Temp\ccwVhq2H.s 			page 23


 719 010c 02310F40 		.word	1074737410
 720 0110 31320F40 		.word	1074737713
 721 0114 25330F40 		.word	1074737957
 722 0118 0C400F40 		.word	1074741260
 723 011c 12410F40 		.word	1074741522
 724 0120 04430F40 		.word	1074742020
 725 0124 02600F40 		.word	1074749442
 726              		.text
 727              	.Letext0:
 728              		.file 2 "c:\\program files (x86)\\cypress\\psoc creator\\4.2\\psoc creator\\import\\gnu\\arm\\5.4.
 729              		.file 3 "Generated_Source\\PSoC4\\cytypes.h"
 730              		.file 4 "Generated_Source\\PSoC4\\CyLib.h"