ARM GAS  C:\Users\josue\AppData\Local\Temp\ccvEuy2d.s 			page 1


   1              		.syntax unified
   2              		.cpu cortex-m0
   3              		.fpu softvfp
   4              		.eabi_attribute 20, 1
   5              		.eabi_attribute 21, 1
   6              		.eabi_attribute 23, 3
   7              		.eabi_attribute 24, 1
   8              		.eabi_attribute 25, 1
   9              		.eabi_attribute 26, 1
  10              		.eabi_attribute 30, 1
  11              		.eabi_attribute 34, 0
  12              		.eabi_attribute 18, 4
  13              		.thumb
  14              		.syntax unified
  15              		.file	"main.c"
  16              		.text
  17              	.Ltext0:
  18              		.cfi_sections	.debug_frame
  19              		.section	.text.Timer,"ax",%progbits
  20              		.align	2
  21              		.global	Timer
  22              		.code	16
  23              		.thumb_func
  24              		.type	Timer, %function
  25              	Timer:
  26              	.LFB34:
  27              		.file 1 "main.c"
   1:main.c        **** /* ========================================
   2:main.c        ****  *
   3:main.c        ****  * Copyright YOUR COMPANY, THE YEAR
   4:main.c        ****  * All Rights Reserved
   5:main.c        ****  * UNPUBLISHED, LICENSED SOFTWARE.
   6:main.c        ****  *
   7:main.c        ****  * CONFIDENTIAL AND PROPRIETARY INFORMATION
   8:main.c        ****  * WHICH IS THE PROPERTY OF your company.
   9:main.c        ****  *
  10:main.c        ****  * ========================================
  11:main.c        **** */
  12:main.c        **** 
  13:main.c        **** #include "project.h"
  14:main.c        **** 
  15:main.c        **** unsigned short count = 0;
  16:main.c        **** unsigned short countSeg = 0;
  17:main.c        **** 
  18:main.c        **** CY_ISR(Timer) // Timer interruption
  19:main.c        **** {
  28              		.loc 1 19 0
  29              		.cfi_startproc
  30              		@ args = 0, pretend = 0, frame = 0
  31              		@ frame_needed = 0, uses_anonymous_args = 0
  32              		@ link register save eliminated.
  20:main.c        ****     count++;
  33              		.loc 1 20 0
  34 0000 064A     		ldr	r2, .L3
  35 0002 1388     		ldrh	r3, [r2]
  36 0004 0133     		adds	r3, r3, #1
  37 0006 9BB2     		uxth	r3, r3
ARM GAS  C:\Users\josue\AppData\Local\Temp\ccvEuy2d.s 			page 2


  38 0008 1380     		strh	r3, [r2]
  21:main.c        ****     if(count==12000)
  39              		.loc 1 21 0
  40 000a 054A     		ldr	r2, .L3+4
  41 000c 9342     		cmp	r3, r2
  42 000e 03D1     		bne	.L1
  22:main.c        ****     {
  23:main.c        ****         countSeg++;
  43              		.loc 1 23 0
  44 0010 024A     		ldr	r2, .L3
  45 0012 5388     		ldrh	r3, [r2, #2]
  46 0014 0133     		adds	r3, r3, #1
  47 0016 5380     		strh	r3, [r2, #2]
  48              	.L1:
  24:main.c        ****     }
  25:main.c        **** }
  49              		.loc 1 25 0
  50              		@ sp needed
  51 0018 7047     		bx	lr
  52              	.L4:
  53 001a C046     		.align	2
  54              	.L3:
  55 001c 00000000 		.word	.LANCHOR0
  56 0020 E02E0000 		.word	12000
  57              		.cfi_endproc
  58              	.LFE34:
  59              		.size	Timer, .-Timer
  60              		.section	.text.Cross,"ax",%progbits
  61              		.align	2
  62              		.global	Cross
  63              		.code	16
  64              		.thumb_func
  65              		.type	Cross, %function
  66              	Cross:
  67              	.LFB35:
  26:main.c        **** 
  27:main.c        **** CY_ISR(Cross) // Cross Interruption
  28:main.c        **** {
  68              		.loc 1 28 0
  69              		.cfi_startproc
  70              		@ args = 0, pretend = 0, frame = 0
  71              		@ frame_needed = 0, uses_anonymous_args = 0
  72              		@ link register save eliminated.
  29:main.c        ****     count=0;
  73              		.loc 1 29 0
  74 0000 0022     		movs	r2, #0
  75 0002 014B     		ldr	r3, .L6
  76 0004 1A80     		strh	r2, [r3]
  30:main.c        **** }
  77              		.loc 1 30 0
  78              		@ sp needed
  79 0006 7047     		bx	lr
  80              	.L7:
  81              		.align	2
  82              	.L6:
  83 0008 00000000 		.word	.LANCHOR0
  84              		.cfi_endproc
ARM GAS  C:\Users\josue\AppData\Local\Temp\ccvEuy2d.s 			page 3


  85              	.LFE35:
  86              		.size	Cross, .-Cross
  87              		.section	.text.keyBoard,"ax",%progbits
  88              		.align	2
  89              		.global	keyBoard
  90              		.code	16
  91              		.thumb_func
  92              		.type	keyBoard, %function
  93              	keyBoard:
  94              	.LFB36:
  31:main.c        **** 
  32:main.c        **** unsigned char keyBoard (void) // Detect key
  33:main.c        **** {
  95              		.loc 1 33 0
  96              		.cfi_startproc
  97              		@ args = 0, pretend = 0, frame = 0
  98              		@ frame_needed = 0, uses_anonymous_args = 0
  99 0000 10B5     		push	{r4, lr}
 100              		.cfi_def_cfa_offset 8
 101              		.cfi_offset 4, -8
 102              		.cfi_offset 14, -4
  34:main.c        ****     unsigned char car;
  35:main.c        ****     
  36:main.c        ****     Control_Write(0x01);
 103              		.loc 1 36 0
 104 0002 0120     		movs	r0, #1
 105 0004 FFF7FEFF 		bl	Control_Write
 106              	.LVL0:
  37:main.c        ****     car = Status_Read() & 0x0F;
 107              		.loc 1 37 0
 108 0008 FFF7FEFF 		bl	Status_Read
 109              	.LVL1:
 110 000c 0F23     		movs	r3, #15
 111 000e 1840     		ands	r0, r3
 112              	.LVL2:
  38:main.c        ****     
  39:main.c        ****     switch(car)
 113              		.loc 1 39 0
 114 0010 0228     		cmp	r0, #2
 115 0012 58D0     		beq	.L30
 116 0014 02D8     		bhi	.L11
 117 0016 0128     		cmp	r0, #1
 118 0018 05D0     		beq	.L12
 119 001a 0AE0     		b	.L9
 120              	.L11:
 121 001c 0428     		cmp	r0, #4
 122 001e 04D0     		beq	.L13
 123 0020 0828     		cmp	r0, #8
 124 0022 04D0     		beq	.L14
 125 0024 05E0     		b	.L9
 126              	.L12:
  40:main.c        ****     {
  41:main.c        ****         case 0x01:
  42:main.c        ****             return 1;
 127              		.loc 1 42 0
 128 0026 0120     		movs	r0, #1
 129              	.LVL3:
ARM GAS  C:\Users\josue\AppData\Local\Temp\ccvEuy2d.s 			page 4


 130 0028 54E0     		b	.L10
 131              	.LVL4:
 132              	.L13:
  43:main.c        ****         break;
  44:main.c        ****         case 0x02:
  45:main.c        ****             return 4;
  46:main.c        ****         break;
  47:main.c        ****         case 0x04:
  48:main.c        ****             return 7;
 133              		.loc 1 48 0
 134 002a 0720     		movs	r0, #7
 135              	.LVL5:
 136 002c 52E0     		b	.L10
 137              	.LVL6:
 138              	.L14:
  49:main.c        ****         break;
  50:main.c        ****         case 0x08:
  51:main.c        ****             return 14;//----------------------------
 139              		.loc 1 51 0
 140 002e 0E20     		movs	r0, #14
 141              	.LVL7:
 142 0030 50E0     		b	.L10
 143              	.LVL8:
 144              	.L9:
  52:main.c        ****         break;     
  53:main.c        ****     }
  54:main.c        ****     
  55:main.c        ****     Control_Write(0x02);
 145              		.loc 1 55 0
 146 0032 0220     		movs	r0, #2
 147              	.LVL9:
 148 0034 FFF7FEFF 		bl	Control_Write
 149              	.LVL10:
  56:main.c        ****     car = Status_Read() & 0x0F;
 150              		.loc 1 56 0
 151 0038 FFF7FEFF 		bl	Status_Read
 152              	.LVL11:
 153 003c 0F23     		movs	r3, #15
 154 003e 1840     		ands	r0, r3
 155              	.LVL12:
  57:main.c        ****     switch(car)
 156              		.loc 1 57 0
 157 0040 0228     		cmp	r0, #2
 158 0042 42D0     		beq	.L31
 159 0044 02D8     		bhi	.L16
 160 0046 0128     		cmp	r0, #1
 161 0048 05D0     		beq	.L17
 162 004a 0AE0     		b	.L15
 163              	.L16:
 164 004c 0428     		cmp	r0, #4
 165 004e 04D0     		beq	.L18
 166 0050 0828     		cmp	r0, #8
 167 0052 04D0     		beq	.L19
 168 0054 05E0     		b	.L15
 169              	.L17:
  58:main.c        ****     {
  59:main.c        ****         case 0x01:
ARM GAS  C:\Users\josue\AppData\Local\Temp\ccvEuy2d.s 			page 5


  60:main.c        ****             return 2; 
 170              		.loc 1 60 0
 171 0056 0220     		movs	r0, #2
 172              	.LVL13:
 173 0058 3CE0     		b	.L10
 174              	.LVL14:
 175              	.L18:
  61:main.c        ****         break;
  62:main.c        ****         case 0x02:
  63:main.c        ****             return 5;
  64:main.c        ****         break;
  65:main.c        ****         case 0x04:
  66:main.c        ****             return 8;
 176              		.loc 1 66 0
 177 005a 0820     		movs	r0, #8
 178              	.LVL15:
 179 005c 3AE0     		b	.L10
 180              	.LVL16:
 181              	.L19:
  67:main.c        ****         break;
  68:main.c        ****         case 0x08:
  69:main.c        ****             return 0;
 182              		.loc 1 69 0
 183 005e 0020     		movs	r0, #0
 184              	.LVL17:
 185 0060 38E0     		b	.L10
 186              	.LVL18:
 187              	.L15:
  70:main.c        ****         break;     
  71:main.c        ****     }
  72:main.c        ****     
  73:main.c        ****     Control_Write(0x04);
 188              		.loc 1 73 0
 189 0062 0420     		movs	r0, #4
 190              	.LVL19:
 191 0064 FFF7FEFF 		bl	Control_Write
 192              	.LVL20:
  74:main.c        ****     car = Status_Read() & 0x0F;
 193              		.loc 1 74 0
 194 0068 FFF7FEFF 		bl	Status_Read
 195              	.LVL21:
 196 006c 0F23     		movs	r3, #15
 197 006e 1840     		ands	r0, r3
 198              	.LVL22:
  75:main.c        ****     switch(car)
 199              		.loc 1 75 0
 200 0070 0228     		cmp	r0, #2
 201 0072 2CD0     		beq	.L32
 202 0074 02D8     		bhi	.L21
 203 0076 0128     		cmp	r0, #1
 204 0078 05D0     		beq	.L22
 205 007a 0AE0     		b	.L20
 206              	.L21:
 207 007c 0428     		cmp	r0, #4
 208 007e 04D0     		beq	.L23
 209 0080 0828     		cmp	r0, #8
 210 0082 04D0     		beq	.L24
ARM GAS  C:\Users\josue\AppData\Local\Temp\ccvEuy2d.s 			page 6


 211 0084 05E0     		b	.L20
 212              	.L22:
  76:main.c        ****     {
  77:main.c        ****         case 0x01:
  78:main.c        ****             return 3;
 213              		.loc 1 78 0
 214 0086 0320     		movs	r0, #3
 215              	.LVL23:
 216 0088 24E0     		b	.L10
 217              	.LVL24:
 218              	.L23:
  79:main.c        ****         break;
  80:main.c        ****         case 0x02:
  81:main.c        ****             return 6;
  82:main.c        ****         break;
  83:main.c        ****         case 0x04:
  84:main.c        ****             return 9;
 219              		.loc 1 84 0
 220 008a 0920     		movs	r0, #9
 221              	.LVL25:
 222 008c 22E0     		b	.L10
 223              	.LVL26:
 224              	.L24:
  85:main.c        ****         break;
  86:main.c        ****         case 0x08:
  87:main.c        ****             return 15;
 225              		.loc 1 87 0
 226 008e 0F20     		movs	r0, #15
 227              	.LVL27:
 228 0090 20E0     		b	.L10
 229              	.LVL28:
 230              	.L20:
  88:main.c        ****         break;     
  89:main.c        ****     }
  90:main.c        ****     
  91:main.c        ****     Control_Write(0x08);
 231              		.loc 1 91 0
 232 0092 0820     		movs	r0, #8
 233              	.LVL29:
 234 0094 FFF7FEFF 		bl	Control_Write
 235              	.LVL30:
  92:main.c        ****     car = Status_Read() & 0x0F;
 236              		.loc 1 92 0
 237 0098 FFF7FEFF 		bl	Status_Read
 238              	.LVL31:
 239 009c 0F23     		movs	r3, #15
 240 009e 1840     		ands	r0, r3
 241              	.LVL32:
  93:main.c        ****     switch(car)
 242              		.loc 1 93 0
 243 00a0 0228     		cmp	r0, #2
 244 00a2 16D0     		beq	.L33
 245 00a4 02D8     		bhi	.L26
 246 00a6 0128     		cmp	r0, #1
 247 00a8 05D0     		beq	.L27
 248 00aa 0AE0     		b	.L25
 249              	.L26:
ARM GAS  C:\Users\josue\AppData\Local\Temp\ccvEuy2d.s 			page 7


 250 00ac 0428     		cmp	r0, #4
 251 00ae 04D0     		beq	.L28
 252 00b0 0828     		cmp	r0, #8
 253 00b2 04D0     		beq	.L29
 254 00b4 05E0     		b	.L25
 255              	.L27:
  94:main.c        ****     {
  95:main.c        ****         case 0x01:
  96:main.c        ****             return 10;
 256              		.loc 1 96 0
 257 00b6 0A20     		movs	r0, #10
 258              	.LVL33:
 259 00b8 0CE0     		b	.L10
 260              	.LVL34:
 261              	.L28:
  97:main.c        ****         break;
  98:main.c        ****         case 0x02:
  99:main.c        ****             return 11;
 100:main.c        ****         break;
 101:main.c        ****         case 0x04:
 102:main.c        ****             return 12;
 262              		.loc 1 102 0
 263 00ba 0C20     		movs	r0, #12
 264              	.LVL35:
 265 00bc 0AE0     		b	.L10
 266              	.LVL36:
 267              	.L29:
 103:main.c        ****         break;
 104:main.c        ****         case 0x08:
 105:main.c        ****             return 13;
 268              		.loc 1 105 0
 269 00be 0D20     		movs	r0, #13
 270              	.LVL37:
 271 00c0 08E0     		b	.L10
 272              	.LVL38:
 273              	.L25:
 106:main.c        ****         break;     
 107:main.c        ****     }
 108:main.c        ****     return 20;
 274              		.loc 1 108 0
 275 00c2 1420     		movs	r0, #20
 276              	.LVL39:
 277 00c4 06E0     		b	.L10
 278              	.LVL40:
 279              	.L30:
  45:main.c        ****         break;
 280              		.loc 1 45 0
 281 00c6 0420     		movs	r0, #4
 282              	.LVL41:
 283 00c8 04E0     		b	.L10
 284              	.LVL42:
 285              	.L31:
  63:main.c        ****         break;
 286              		.loc 1 63 0
 287 00ca 0520     		movs	r0, #5
 288              	.LVL43:
 289 00cc 02E0     		b	.L10
ARM GAS  C:\Users\josue\AppData\Local\Temp\ccvEuy2d.s 			page 8


 290              	.LVL44:
 291              	.L32:
  81:main.c        ****         break;
 292              		.loc 1 81 0
 293 00ce 0620     		movs	r0, #6
 294              	.LVL45:
 295 00d0 00E0     		b	.L10
 296              	.LVL46:
 297              	.L33:
  99:main.c        ****         break;
 298              		.loc 1 99 0
 299 00d2 0B20     		movs	r0, #11
 300              	.LVL47:
 301              	.L10:
 109:main.c        **** }
 302              		.loc 1 109 0
 303              		@ sp needed
 304 00d4 10BD     		pop	{r4, pc}
 305              		.cfi_endproc
 306              	.LFE36:
 307              		.size	keyBoard, .-keyBoard
 308 00d6 C046     		.section	.text.LCD_Text,"ax",%progbits
 309              		.align	2
 310              		.global	LCD_Text
 311              		.code	16
 312              		.thumb_func
 313              		.type	LCD_Text, %function
 314              	LCD_Text:
 315              	.LFB37:
 110:main.c        **** 
 111:main.c        **** void LCD_Text(unsigned char x, unsigned char y, char8 const text[])
 112:main.c        **** {
 316              		.loc 1 112 0
 317              		.cfi_startproc
 318              		@ args = 0, pretend = 0, frame = 0
 319              		@ frame_needed = 0, uses_anonymous_args = 0
 320              	.LVL48:
 321 0000 10B5     		push	{r4, lr}
 322              		.cfi_def_cfa_offset 8
 323              		.cfi_offset 4, -8
 324              		.cfi_offset 14, -4
 325 0002 1400     		movs	r4, r2
 113:main.c        ****     LCD_Position(x,y);
 326              		.loc 1 113 0
 327 0004 FFF7FEFF 		bl	LCD_Position
 328              	.LVL49:
 114:main.c        ****     LCD_PrintString(text);
 329              		.loc 1 114 0
 330 0008 2000     		movs	r0, r4
 331 000a FFF7FEFF 		bl	LCD_PrintString
 332              	.LVL50:
 115:main.c        **** }
 333              		.loc 1 115 0
 334              		@ sp needed
 335              	.LVL51:
 336 000e 10BD     		pop	{r4, pc}
 337              		.cfi_endproc
ARM GAS  C:\Users\josue\AppData\Local\Temp\ccvEuy2d.s 			page 9


 338              	.LFE37:
 339              		.size	LCD_Text, .-LCD_Text
 340              		.section	.text.General_Menu,"ax",%progbits
 341              		.align	2
 342              		.global	General_Menu
 343              		.code	16
 344              		.thumb_func
 345              		.type	General_Menu, %function
 346              	General_Menu:
 347              	.LFB38:
 116:main.c        **** 
 117:main.c        **** unsigned char General_Menu(unsigned char intensity, unsigned char time)
 118:main.c        **** {
 348              		.loc 1 118 0
 349              		.cfi_startproc
 350              		@ args = 0, pretend = 0, frame = 48
 351              		@ frame_needed = 0, uses_anonymous_args = 0
 352              	.LVL52:
 353 0000 F0B5     		push	{r4, r5, r6, r7, lr}
 354              		.cfi_def_cfa_offset 20
 355              		.cfi_offset 4, -20
 356              		.cfi_offset 5, -16
 357              		.cfi_offset 6, -12
 358              		.cfi_offset 7, -8
 359              		.cfi_offset 14, -4
 360 0002 8DB0     		sub	sp, sp, #52
 361              		.cfi_def_cfa_offset 72
 362 0004 0600     		movs	r6, r0
 363 0006 0191     		str	r1, [sp, #4]
 119:main.c        ****     unsigned char key;
 120:main.c        ****     
 121:main.c        ****     char8 const textInt[]="Intensity(A):   %"; 
 364              		.loc 1 121 0
 365 0008 07AA     		add	r2, sp, #28
 366 000a 174B     		ldr	r3, .L36
 367 000c 1100     		movs	r1, r2
 368              	.LVL53:
 369 000e 91CB     		ldmia	r3!, {r0, r4, r7}
 370 0010 91C1     		stmia	r1!, {r0, r4, r7}
 371              	.LVL54:
 372 0012 1800     		movs	r0, r3
 373 0014 1B68     		ldr	r3, [r3]
 374 0016 0B60     		str	r3, [r1]
 375 0018 8388     		ldrh	r3, [r0, #4]
 376 001a 8B80     		strh	r3, [r1, #4]
 377              	.LVL55:
 122:main.c        ****     unsigned char lgthInt = sizeof(textInt)/sizeof(textInt[0]);
 123:main.c        ****     char8 const textTime[]="Time(B):   s"; 
 378              		.loc 1 123 0
 379 001c 03AC     		add	r4, sp, #12
 380 001e 134B     		ldr	r3, .L36+4
 381 0020 2100     		movs	r1, r4
 382 0022 A1CB     		ldmia	r3!, {r0, r5, r7}
 383 0024 A1C1     		stmia	r1!, {r0, r5, r7}
 384 0026 1B78     		ldrb	r3, [r3]
 385 0028 0B70     		strb	r3, [r1]
 386              	.LVL56:
ARM GAS  C:\Users\josue\AppData\Local\Temp\ccvEuy2d.s 			page 10


 124:main.c        ****     unsigned char lgthTime = sizeof(textTime)/sizeof(textTime[0]);
 125:main.c        ****     
 126:main.c        ****     LCD_Text(0,0,textInt);
 387              		.loc 1 126 0
 388 002a 0021     		movs	r1, #0
 389 002c 0020     		movs	r0, #0
 390 002e FFF7FEFF 		bl	LCD_Text
 391              	.LVL57:
 127:main.c        ****     LCD_Position(0,lgthInt);
 392              		.loc 1 127 0
 393 0032 1221     		movs	r1, #18
 394 0034 0020     		movs	r0, #0
 395 0036 FFF7FEFF 		bl	LCD_Position
 396              	.LVL58:
 128:main.c        ****     LCD_PrintNumber(intensity);
 397              		.loc 1 128 0
 398 003a 3000     		movs	r0, r6
 399 003c FFF7FEFF 		bl	LCD_PrintU32Number
 400              	.LVL59:
 129:main.c        ****     
 130:main.c        ****     LCD_Text(1,0,textTime);
 401              		.loc 1 130 0
 402 0040 2200     		movs	r2, r4
 403 0042 0021     		movs	r1, #0
 404 0044 0120     		movs	r0, #1
 405 0046 FFF7FEFF 		bl	LCD_Text
 406              	.LVL60:
 131:main.c        ****     LCD_Position(0,lgthTime);
 407              		.loc 1 131 0
 408 004a 0D21     		movs	r1, #13
 409 004c 0020     		movs	r0, #0
 410 004e FFF7FEFF 		bl	LCD_Position
 411              	.LVL61:
 132:main.c        ****     LCD_PrintNumber(time);
 412              		.loc 1 132 0
 413 0052 0198     		ldr	r0, [sp, #4]
 414 0054 FFF7FEFF 		bl	LCD_PrintU32Number
 415              	.LVL62:
 133:main.c        ****     
 134:main.c        ****     LCD_Text(2,0,"Start Dimmer: C");
 416              		.loc 1 134 0
 417 0058 054A     		ldr	r2, .L36+8
 418 005a 0021     		movs	r1, #0
 419 005c 0220     		movs	r0, #2
 420 005e FFF7FEFF 		bl	LCD_Text
 421              	.LVL63:
 135:main.c        ****     
 136:main.c        ****     for(unsigned char i;i!=1;)
 137:main.c        ****     {
 138:main.c        ****         key = keyBoard();
 139:main.c        ****         if(key>9 && key<13)
 140:main.c        ****         {
 141:main.c        ****             switch (key)
 142:main.c        ****             {
 143:main.c        ****                 case 10:
 144:main.c        ****                     return 1;
 145:main.c        ****                 break;
ARM GAS  C:\Users\josue\AppData\Local\Temp\ccvEuy2d.s 			page 11


 146:main.c        ****                 
 147:main.c        ****                 case 11:
 148:main.c        ****                     return 2;
 149:main.c        ****                 break;
 150:main.c        ****                 
 151:main.c        ****                 case 12:
 152:main.c        ****                     return 3;
 153:main.c        ****                 break;
 154:main.c        ****             }
 155:main.c        ****             i=1;
 156:main.c        ****         }
 157:main.c        ****     }
 158:main.c        ****     return 0;    
 159:main.c        **** }
 422              		.loc 1 159 0
 423 0062 0020     		movs	r0, #0
 424 0064 0DB0     		add	sp, sp, #52
 425              		@ sp needed
 426 0066 F0BD     		pop	{r4, r5, r6, r7, pc}
 427              	.L37:
 428              		.align	2
 429              	.L36:
 430 0068 10000000 		.word	.LC2
 431 006c 24000000 		.word	.LC4
 432 0070 00000000 		.word	.LC6
 433              		.cfi_endproc
 434              	.LFE38:
 435              		.size	General_Menu, .-General_Menu
 436              		.section	.text.Intensity_Box,"ax",%progbits
 437              		.align	2
 438              		.global	Intensity_Box
 439              		.code	16
 440              		.thumb_func
 441              		.type	Intensity_Box, %function
 442              	Intensity_Box:
 443              	.LFB39:
 160:main.c        **** 
 161:main.c        **** unsigned char Intensity_Box(unsigned short intensity)
 162:main.c        **** {
 444              		.loc 1 162 0
 445              		.cfi_startproc
 446              		@ args = 0, pretend = 0, frame = 24
 447              		@ frame_needed = 0, uses_anonymous_args = 0
 448              	.LVL64:
 449 0000 F0B5     		push	{r4, r5, r6, r7, lr}
 450              		.cfi_def_cfa_offset 20
 451              		.cfi_offset 4, -20
 452              		.cfi_offset 5, -16
 453              		.cfi_offset 6, -12
 454              		.cfi_offset 7, -8
 455              		.cfi_offset 14, -4
 456 0002 87B0     		sub	sp, sp, #28
 457              		.cfi_def_cfa_offset 48
 458 0004 0400     		movs	r4, r0
 163:main.c        ****     unsigned char number[3]={0,0,0};    //Save numbers to calculate intensity
 459              		.loc 1 163 0
 460 0006 05AB     		add	r3, sp, #20
ARM GAS  C:\Users\josue\AppData\Local\Temp\ccvEuy2d.s 			page 12


 461 0008 0022     		movs	r2, #0
 462 000a 1A70     		strb	r2, [r3]
 463 000c 5A70     		strb	r2, [r3, #1]
 464 000e 9A70     		strb	r2, [r3, #2]
 465              	.LVL65:
 164:main.c        ****     unsigned char key=0;                //Assign keyboard values
 165:main.c        ****     unsigned char countNumber=0;        //Count digits
 166:main.c        ****     unsigned char result=0;
 167:main.c        ****     
 168:main.c        ****     char8 const textInt[]="Intensity(%):"; 
 466              		.loc 1 168 0
 467 0010 01AB     		add	r3, sp, #4
 468 0012 754A     		ldr	r2, .L55
 469 0014 23CA     		ldmia	r2!, {r0, r1, r5}
 470 0016 23C3     		stmia	r3!, {r0, r1, r5}
 471              	.LVL66:
 472 0018 1900     		movs	r1, r3
 473 001a 1388     		ldrh	r3, [r2]
 474 001c 0B80     		strh	r3, [r1]
 475              	.LVL67:
 169:main.c        ****     unsigned char lgthInt = sizeof(textInt)/sizeof(textInt[0]);
 170:main.c        ****     
 171:main.c        ****     if(intensity<1000)
 476              		.loc 1 171 0
 477 001e 734B     		ldr	r3, .L55+4
 478 0020 9C42     		cmp	r4, r3
 479 0022 0CD8     		bhi	.L39
 172:main.c        ****     {
 173:main.c        ****         LCD_Text(0,0,textInt);
 480              		.loc 1 173 0
 481 0024 01AA     		add	r2, sp, #4
 482 0026 0021     		movs	r1, #0
 483 0028 0020     		movs	r0, #0
 484 002a FFF7FEFF 		bl	LCD_Text
 485              	.LVL68:
 174:main.c        ****         LCD_Position(0,lgthInt);
 486              		.loc 1 174 0
 487 002e 0E21     		movs	r1, #14
 488 0030 0020     		movs	r0, #0
 489 0032 FFF7FEFF 		bl	LCD_Position
 490              	.LVL69:
 175:main.c        ****         LCD_PrintNumber(intensity);
 491              		.loc 1 175 0
 492 0036 2000     		movs	r0, r4
 493 0038 FFF7FEFF 		bl	LCD_PrintU32Number
 494              	.LVL70:
 495 003c 1CE0     		b	.L40
 496              	.L39:
 176:main.c        ****     }
 177:main.c        ****     else if(intensity<100)
 497              		.loc 1 177 0
 498 003e 632C     		cmp	r4, #99
 499 0040 0CD8     		bhi	.L41
 178:main.c        ****     {
 179:main.c        ****         LCD_Text(0,0,"Intensity(%):0");
 500              		.loc 1 179 0
 501 0042 6B4A     		ldr	r2, .L55+8
ARM GAS  C:\Users\josue\AppData\Local\Temp\ccvEuy2d.s 			page 13


 502 0044 0021     		movs	r1, #0
 503 0046 0020     		movs	r0, #0
 504 0048 FFF7FEFF 		bl	LCD_Text
 505              	.LVL71:
 180:main.c        ****         LCD_Position(0,lgthInt+1);
 506              		.loc 1 180 0
 507 004c 0F21     		movs	r1, #15
 508 004e 0020     		movs	r0, #0
 509 0050 FFF7FEFF 		bl	LCD_Position
 510              	.LVL72:
 181:main.c        ****         LCD_PrintNumber(intensity);
 511              		.loc 1 181 0
 512 0054 2000     		movs	r0, r4
 513 0056 FFF7FEFF 		bl	LCD_PrintU32Number
 514              	.LVL73:
 515 005a 0DE0     		b	.L40
 516              	.L41:
 182:main.c        ****     }
 183:main.c        ****     else if(intensity<10)
 517              		.loc 1 183 0
 518 005c 092C     		cmp	r4, #9
 519 005e 0BD8     		bhi	.L40
 184:main.c        ****     {
 185:main.c        ****         LCD_Text(0,0,"Intensity(%):00");
 520              		.loc 1 185 0
 521 0060 644A     		ldr	r2, .L55+12
 522 0062 0021     		movs	r1, #0
 523 0064 0020     		movs	r0, #0
 524 0066 FFF7FEFF 		bl	LCD_Text
 525              	.LVL74:
 186:main.c        ****         LCD_Position(0,lgthInt+2);
 526              		.loc 1 186 0
 527 006a 1021     		movs	r1, #16
 528 006c 0020     		movs	r0, #0
 529 006e FFF7FEFF 		bl	LCD_Position
 530              	.LVL75:
 187:main.c        ****         LCD_PrintNumber(intensity);
 531              		.loc 1 187 0
 532 0072 2000     		movs	r0, r4
 533 0074 FFF7FEFF 		bl	LCD_PrintU32Number
 534              	.LVL76:
 535              	.L40:
 188:main.c        ****     }
 189:main.c        ****     
 190:main.c        ****     LCD_Text(1,0,"Enter:*");
 536              		.loc 1 190 0
 537 0078 5F4A     		ldr	r2, .L55+16
 538 007a 0021     		movs	r1, #0
 539 007c 0120     		movs	r0, #1
 540 007e FFF7FEFF 		bl	LCD_Text
 541              	.LVL77:
 191:main.c        ****     LCD_Text(1,9,"Delete:#");
 542              		.loc 1 191 0
 543 0082 5E4A     		ldr	r2, .L55+20
 544 0084 0921     		movs	r1, #9
 545 0086 0120     		movs	r0, #1
 546 0088 FFF7FEFF 		bl	LCD_Text
ARM GAS  C:\Users\josue\AppData\Local\Temp\ccvEuy2d.s 			page 14


 547              	.LVL78:
 192:main.c        ****     LCD_Text(2,0,"Cancel:A");
 548              		.loc 1 192 0
 549 008c 5C4A     		ldr	r2, .L55+24
 550 008e 0021     		movs	r1, #0
 551 0090 0220     		movs	r0, #2
 552 0092 FFF7FEFF 		bl	LCD_Text
 553              	.LVL79:
 554              	.LBB2:
 193:main.c        ****     
 194:main.c        ****     for(unsigned char i=0;i!=1;)
 555              		.loc 1 194 0
 556 0096 0026     		movs	r6, #0
 557              	.LBE2:
 166:main.c        ****     
 558              		.loc 1 166 0
 559 0098 0027     		movs	r7, #0
 165:main.c        ****     unsigned char result=0;
 560              		.loc 1 165 0
 561 009a 0024     		movs	r4, #0
 562              	.LBB3:
 563              		.loc 1 194 0
 564 009c 9EE0     		b	.L42
 565              	.LVL80:
 566              	.L52:
 195:main.c        ****     {
 196:main.c        ****         key = keyBoard();
 567              		.loc 1 196 0
 568 009e FFF7FEFF 		bl	keyBoard
 569              	.LVL81:
 570 00a2 0500     		movs	r5, r0
 571 00a4 0300     		movs	r3, r0
 572              	.LVL82:
 197:main.c        ****      
 198:main.c        ****         if(key>=0 && key<=9)
 573              		.loc 1 198 0
 574 00a6 0928     		cmp	r0, #9
 575 00a8 31D8     		bhi	.L43
 199:main.c        ****         {
 200:main.c        ****             if(countNumber==0 && key!=0)
 576              		.loc 1 200 0
 577 00aa 002C     		cmp	r4, #0
 578 00ac 0DD1     		bne	.L44
 579              		.loc 1 200 0 is_stmt 0 discriminator 1
 580 00ae 0028     		cmp	r0, #0
 581 00b0 0BD0     		beq	.L44
 201:main.c        ****             {
 202:main.c        ****                 number[countNumber] = key;
 582              		.loc 1 202 0 is_stmt 1
 583 00b2 05AB     		add	r3, sp, #20
 584 00b4 1855     		strb	r0, [r3, r4]
 203:main.c        ****                 countNumber++;
 585              		.loc 1 203 0
 586 00b6 0134     		adds	r4, r4, #1
 587              	.LVL83:
 588 00b8 E4B2     		uxtb	r4, r4
 589              	.LVL84:
ARM GAS  C:\Users\josue\AppData\Local\Temp\ccvEuy2d.s 			page 15


 204:main.c        ****                 LCD_Position(0,15);
 590              		.loc 1 204 0
 591 00ba 0F21     		movs	r1, #15
 592 00bc 0020     		movs	r0, #0
 593              	.LVL85:
 594 00be FFF7FEFF 		bl	LCD_Position
 595              	.LVL86:
 205:main.c        ****                 LCD_PrintNumber(key);
 596              		.loc 1 205 0
 597 00c2 2800     		movs	r0, r5
 598 00c4 FFF7FEFF 		bl	LCD_PrintU32Number
 599              	.LVL87:
 600 00c8 88E0     		b	.L42
 601              	.LVL88:
 602              	.L44:
 206:main.c        ****             }
 207:main.c        ****             else if(countNumber==1)
 603              		.loc 1 207 0
 604 00ca 012C     		cmp	r4, #1
 605 00cc 0BD1     		bne	.L46
 208:main.c        ****             {
 209:main.c        ****                 number[countNumber] = key;
 606              		.loc 1 209 0
 607 00ce 05AB     		add	r3, sp, #20
 608 00d0 1D55     		strb	r5, [r3, r4]
 210:main.c        ****                 countNumber++;
 609              		.loc 1 210 0
 610 00d2 0134     		adds	r4, r4, #1
 611              	.LVL89:
 612 00d4 E4B2     		uxtb	r4, r4
 613              	.LVL90:
 211:main.c        ****                 LCD_Position(0,14);
 614              		.loc 1 211 0
 615 00d6 0E21     		movs	r1, #14
 616 00d8 0020     		movs	r0, #0
 617              	.LVL91:
 618 00da FFF7FEFF 		bl	LCD_Position
 619              	.LVL92:
 212:main.c        ****                 LCD_PrintNumber(key);
 620              		.loc 1 212 0
 621 00de 2800     		movs	r0, r5
 622 00e0 FFF7FEFF 		bl	LCD_PrintU32Number
 623              	.LVL93:
 624 00e4 7AE0     		b	.L42
 625              	.LVL94:
 626              	.L46:
 213:main.c        ****             }
 214:main.c        ****             else if(countNumber==2 && number[0]==1 && key==0)
 627              		.loc 1 214 0
 628 00e6 022C     		cmp	r4, #2
 629 00e8 78D1     		bne	.L42
 630              		.loc 1 214 0 is_stmt 0 discriminator 1
 631 00ea 05AA     		add	r2, sp, #20
 632 00ec 1278     		ldrb	r2, [r2]
 633 00ee 012A     		cmp	r2, #1
 634 00f0 74D1     		bne	.L42
 635              		.loc 1 214 0 discriminator 2
ARM GAS  C:\Users\josue\AppData\Local\Temp\ccvEuy2d.s 			page 16


 636 00f2 002B     		cmp	r3, #0
 637 00f4 72D1     		bne	.L42
 215:main.c        ****             {
 216:main.c        ****                 number[countNumber] = key;
 638              		.loc 1 216 0 is_stmt 1
 639 00f6 05AB     		add	r3, sp, #20
 640 00f8 1D55     		strb	r5, [r3, r4]
 217:main.c        ****                 countNumber++;
 641              		.loc 1 217 0
 642 00fa 0134     		adds	r4, r4, #1
 643              	.LVL95:
 644 00fc E4B2     		uxtb	r4, r4
 645              	.LVL96:
 218:main.c        ****                 LCD_Position(0,13);
 646              		.loc 1 218 0
 647 00fe 0D21     		movs	r1, #13
 648 0100 0020     		movs	r0, #0
 649              	.LVL97:
 650 0102 FFF7FEFF 		bl	LCD_Position
 651              	.LVL98:
 219:main.c        ****                 LCD_PrintNumber(key);
 652              		.loc 1 219 0
 653 0106 2800     		movs	r0, r5
 654 0108 FFF7FEFF 		bl	LCD_PrintU32Number
 655              	.LVL99:
 656 010c 66E0     		b	.L42
 657              	.LVL100:
 658              	.L43:
 220:main.c        ****             }
 221:main.c        ****         }
 222:main.c        ****         else if(key==10)
 659              		.loc 1 222 0
 660 010e 0A28     		cmp	r0, #10
 661 0110 60D0     		beq	.L53
 223:main.c        ****         {
 224:main.c        ****             i = 1;
 225:main.c        ****             result = 0;
 226:main.c        ****         }
 227:main.c        ****         else if(key==14)
 662              		.loc 1 227 0
 663 0112 0E28     		cmp	r0, #14
 664 0114 21D1     		bne	.L47
 228:main.c        ****         {
 229:main.c        ****             if(countNumber==1)
 665              		.loc 1 229 0
 666 0116 012C     		cmp	r4, #1
 667 0118 03D1     		bne	.L48
 230:main.c        ****             {
 231:main.c        ****                 result = number[0];
 668              		.loc 1 231 0
 669 011a 05AB     		add	r3, sp, #20
 670 011c 1F78     		ldrb	r7, [r3]
 671              	.LVL101:
 232:main.c        ****             }
 233:main.c        ****             else if(countNumber==2)
 234:main.c        ****             {
 235:main.c        ****                 result = ((number[0])*10)+number[1];
ARM GAS  C:\Users\josue\AppData\Local\Temp\ccvEuy2d.s 			page 17


 236:main.c        ****             }
 237:main.c        ****             else if(countNumber==3)
 238:main.c        ****             {
 239:main.c        ****                 result = ((number[0])*100)+(number[1]*10)+number[2];
 240:main.c        ****             }
 241:main.c        ****             
 242:main.c        ****             i = 1;
 672              		.loc 1 242 0
 673 011e 0126     		movs	r6, #1
 674              	.LVL102:
 675 0120 5CE0     		b	.L42
 676              	.LVL103:
 677              	.L48:
 233:main.c        ****             {
 678              		.loc 1 233 0
 679 0122 022C     		cmp	r4, #2
 680 0124 09D1     		bne	.L49
 235:main.c        ****             }
 681              		.loc 1 235 0
 682 0126 05AB     		add	r3, sp, #20
 683 0128 1978     		ldrb	r1, [r3]
 684 012a 5F78     		ldrb	r7, [r3, #1]
 685              	.LVL104:
 686 012c 8A00     		lsls	r2, r1, #2
 687 012e 8A18     		adds	r2, r1, r2
 688 0130 5300     		lsls	r3, r2, #1
 689 0132 FB18     		adds	r3, r7, r3
 690 0134 DFB2     		uxtb	r7, r3
 691              	.LVL105:
 692              		.loc 1 242 0
 693 0136 0126     		movs	r6, #1
 694              	.LVL106:
 695 0138 50E0     		b	.L42
 696              	.LVL107:
 697              	.L49:
 237:main.c        ****             {
 698              		.loc 1 237 0
 699 013a 032C     		cmp	r4, #3
 700 013c 4DD1     		bne	.L54
 239:main.c        ****             }
 701              		.loc 1 239 0
 702 013e 05A8     		add	r0, sp, #20
 703              	.LVL108:
 704 0140 0378     		ldrb	r3, [r0]
 705 0142 4578     		ldrb	r5, [r0, #1]
 706 0144 8778     		ldrb	r7, [r0, #2]
 707              	.LVL109:
 708 0146 6421     		movs	r1, #100
 709 0148 5943     		muls	r1, r3
 710 014a AA00     		lsls	r2, r5, #2
 711 014c AA18     		adds	r2, r5, r2
 712 014e 5300     		lsls	r3, r2, #1
 713 0150 CB18     		adds	r3, r1, r3
 714 0152 FB18     		adds	r3, r7, r3
 715 0154 DFB2     		uxtb	r7, r3
 716              	.LVL110:
 717              		.loc 1 242 0
ARM GAS  C:\Users\josue\AppData\Local\Temp\ccvEuy2d.s 			page 18


 718 0156 0126     		movs	r6, #1
 719              	.LVL111:
 720 0158 40E0     		b	.L42
 721              	.LVL112:
 722              	.L47:
 243:main.c        ****         }
 244:main.c        ****          else if(key==15)
 723              		.loc 1 244 0
 724 015a 0F28     		cmp	r0, #15
 725 015c 3ED1     		bne	.L42
 245:main.c        ****         {
 246:main.c        ****             if(countNumber==1)
 726              		.loc 1 246 0
 727 015e 012C     		cmp	r4, #1
 728 0160 0AD1     		bne	.L50
 247:main.c        ****             {
 248:main.c        ****                 LCD_Text(0,lgthInt+2,"0");
 729              		.loc 1 248 0
 730 0162 284A     		ldr	r2, .L55+28
 731 0164 1021     		movs	r1, #16
 732 0166 0020     		movs	r0, #0
 733              	.LVL113:
 734 0168 FFF7FEFF 		bl	LCD_Text
 735              	.LVL114:
 249:main.c        ****                 countNumber--;
 736              		.loc 1 249 0
 737 016c 013C     		subs	r4, r4, #1
 738              	.LVL115:
 739 016e E4B2     		uxtb	r4, r4
 740              	.LVL116:
 250:main.c        ****                 number[countNumber] = 0;
 741              		.loc 1 250 0
 742 0170 0022     		movs	r2, #0
 743 0172 05AB     		add	r3, sp, #20
 744 0174 1A55     		strb	r2, [r3, r4]
 745 0176 31E0     		b	.L42
 746              	.LVL117:
 747              	.L50:
 251:main.c        ****             }
 252:main.c        ****             else if(countNumber==2)
 748              		.loc 1 252 0
 749 0178 022C     		cmp	r4, #2
 750 017a 11D1     		bne	.L51
 253:main.c        ****             {
 254:main.c        ****                 LCD_Text(0,lgthInt+1,"0");
 751              		.loc 1 254 0
 752 017c 214A     		ldr	r2, .L55+28
 753 017e 0F21     		movs	r1, #15
 754 0180 0020     		movs	r0, #0
 755              	.LVL118:
 756 0182 FFF7FEFF 		bl	LCD_Text
 757              	.LVL119:
 255:main.c        ****                 LCD_Position(0,lgthInt+2);
 758              		.loc 1 255 0
 759 0186 1021     		movs	r1, #16
 760 0188 0020     		movs	r0, #0
 761 018a FFF7FEFF 		bl	LCD_Position
ARM GAS  C:\Users\josue\AppData\Local\Temp\ccvEuy2d.s 			page 19


 762              	.LVL120:
 256:main.c        ****                 LCD_PrintNumber(number[0]);
 763              		.loc 1 256 0
 764 018e 05AD     		add	r5, sp, #20
 765 0190 2878     		ldrb	r0, [r5]
 766 0192 FFF7FEFF 		bl	LCD_PrintU32Number
 767              	.LVL121:
 257:main.c        ****                 
 258:main.c        ****                 countNumber--;
 768              		.loc 1 258 0
 769 0196 013C     		subs	r4, r4, #1
 770              	.LVL122:
 771 0198 E4B2     		uxtb	r4, r4
 772              	.LVL123:
 259:main.c        ****                 number[countNumber] = 0;
 773              		.loc 1 259 0
 774 019a 0023     		movs	r3, #0
 775 019c 2B55     		strb	r3, [r5, r4]
 776 019e 1DE0     		b	.L42
 777              	.LVL124:
 778              	.L51:
 260:main.c        ****             }
 261:main.c        ****             else if(countNumber==3)
 779              		.loc 1 261 0
 780 01a0 032C     		cmp	r4, #3
 781 01a2 1BD1     		bne	.L42
 262:main.c        ****             {
 263:main.c        ****                 LCD_Text(0,lgthInt,"0");
 782              		.loc 1 263 0
 783 01a4 174A     		ldr	r2, .L55+28
 784 01a6 0E21     		movs	r1, #14
 785 01a8 0020     		movs	r0, #0
 786              	.LVL125:
 787 01aa FFF7FEFF 		bl	LCD_Text
 788              	.LVL126:
 264:main.c        ****                 LCD_Position(0,lgthInt+1);
 789              		.loc 1 264 0
 790 01ae 0F21     		movs	r1, #15
 791 01b0 0020     		movs	r0, #0
 792 01b2 FFF7FEFF 		bl	LCD_Position
 793              	.LVL127:
 265:main.c        ****                 LCD_PrintNumber((number[0]*10)+number[1]);
 794              		.loc 1 265 0
 795 01b6 05AD     		add	r5, sp, #20
 796 01b8 2978     		ldrb	r1, [r5]
 797 01ba 6B78     		ldrb	r3, [r5, #1]
 798 01bc 8A00     		lsls	r2, r1, #2
 799 01be 8A18     		adds	r2, r1, r2
 800 01c0 5000     		lsls	r0, r2, #1
 801 01c2 C018     		adds	r0, r0, r3
 802 01c4 80B2     		uxth	r0, r0
 803 01c6 FFF7FEFF 		bl	LCD_PrintU32Number
 804              	.LVL128:
 266:main.c        ****                 
 267:main.c        ****                 countNumber--;
 805              		.loc 1 267 0
 806 01ca 013C     		subs	r4, r4, #1
ARM GAS  C:\Users\josue\AppData\Local\Temp\ccvEuy2d.s 			page 20


 807              	.LVL129:
 808 01cc E4B2     		uxtb	r4, r4
 809              	.LVL130:
 268:main.c        ****                 number[countNumber] = 0;
 810              		.loc 1 268 0
 811 01ce 0023     		movs	r3, #0
 812 01d0 2B55     		strb	r3, [r5, r4]
 813 01d2 03E0     		b	.L42
 814              	.LVL131:
 815              	.L53:
 224:main.c        ****             result = 0;
 816              		.loc 1 224 0
 817 01d4 0126     		movs	r6, #1
 818              	.LVL132:
 225:main.c        ****         }
 819              		.loc 1 225 0
 820 01d6 0027     		movs	r7, #0
 821              	.LVL133:
 822 01d8 00E0     		b	.L42
 823              	.LVL134:
 824              	.L54:
 242:main.c        ****         }
 825              		.loc 1 242 0
 826 01da 0126     		movs	r6, #1
 827              	.LVL135:
 828              	.L42:
 194:main.c        ****     {
 829              		.loc 1 194 0 discriminator 1
 830 01dc 012E     		cmp	r6, #1
 831 01de 00D0     		beq	.LCB773
 832 01e0 5DE7     		b	.L52	@long jump
 833              	.LCB773:
 834              	.LBE3:
 269:main.c        ****             }
 270:main.c        ****             
 271:main.c        ****         }
 272:main.c        ****     }
 273:main.c        ****     
 274:main.c        ****     return result;
 275:main.c        ****     
 276:main.c        **** }
 835              		.loc 1 276 0
 836 01e2 3800     		movs	r0, r7
 837 01e4 07B0     		add	sp, sp, #28
 838              		@ sp needed
 839              	.LVL136:
 840              	.LVL137:
 841              	.LVL138:
 842 01e6 F0BD     		pop	{r4, r5, r6, r7, pc}
 843              	.L56:
 844              		.align	2
 845              	.L55:
 846 01e8 78000000 		.word	.LC8
 847 01ec E7030000 		.word	999
 848 01f0 34000000 		.word	.LC10
 849 01f4 44000000 		.word	.LC12
 850 01f8 54000000 		.word	.LC14
ARM GAS  C:\Users\josue\AppData\Local\Temp\ccvEuy2d.s 			page 21


 851 01fc 5C000000 		.word	.LC16
 852 0200 68000000 		.word	.LC18
 853 0204 74000000 		.word	.LC20
 854              		.cfi_endproc
 855              	.LFE39:
 856              		.size	Intensity_Box, .-Intensity_Box
 857              		.section	.text.Time_Box,"ax",%progbits
 858              		.align	2
 859              		.global	Time_Box
 860              		.code	16
 861              		.thumb_func
 862              		.type	Time_Box, %function
 863              	Time_Box:
 864              	.LFB40:
 277:main.c        **** 
 278:main.c        **** unsigned short Time_Box(unsigned short time)
 279:main.c        **** {
 865              		.loc 1 279 0
 866              		.cfi_startproc
 867              		@ args = 0, pretend = 0, frame = 16
 868              		@ frame_needed = 0, uses_anonymous_args = 0
 869              	.LVL139:
 870 0000 F0B5     		push	{r4, r5, r6, r7, lr}
 871              		.cfi_def_cfa_offset 20
 872              		.cfi_offset 4, -20
 873              		.cfi_offset 5, -16
 874              		.cfi_offset 6, -12
 875              		.cfi_offset 7, -8
 876              		.cfi_offset 14, -4
 877 0002 4746     		mov	r7, r8
 878 0004 80B4     		push	{r7}
 879              		.cfi_def_cfa_offset 24
 880              		.cfi_offset 8, -24
 881 0006 84B0     		sub	sp, sp, #16
 882              		.cfi_def_cfa_offset 40
 883 0008 0400     		movs	r4, r0
 280:main.c        ****     unsigned char number[3]={0,0,0};    //Save numbers to calculate intensity
 884              		.loc 1 280 0
 885 000a 03AB     		add	r3, sp, #12
 886 000c 0022     		movs	r2, #0
 887 000e 1A70     		strb	r2, [r3]
 888 0010 5A70     		strb	r2, [r3, #1]
 889 0012 9A70     		strb	r2, [r3, #2]
 890              	.LVL140:
 281:main.c        ****     unsigned char key=0;                //Assign keyboard values
 282:main.c        ****     unsigned char countNumber=0;        //Count digits
 283:main.c        ****     unsigned short result=0;
 284:main.c        ****     
 285:main.c        ****     char8 const textTime[]="Time(s):"; 
 891              		.loc 1 285 0
 892 0014 6B46     		mov	r3, sp
 893 0016 7C4A     		ldr	r2, .L74
 894 0018 03CA     		ldmia	r2!, {r0, r1}
 895 001a 03C3     		stmia	r3!, {r0, r1}
 896              	.LVL141:
 897 001c 1900     		movs	r1, r3
 898 001e 1378     		ldrb	r3, [r2]
ARM GAS  C:\Users\josue\AppData\Local\Temp\ccvEuy2d.s 			page 22


 899 0020 0B70     		strb	r3, [r1]
 900              	.LVL142:
 286:main.c        ****     unsigned char lgthTime = sizeof(textTime)/sizeof(textTime[0]);
 287:main.c        ****     
 288:main.c        ****     if(time<1000)
 901              		.loc 1 288 0
 902 0022 7A4B     		ldr	r3, .L74+4
 903 0024 9C42     		cmp	r4, r3
 904 0026 0CD8     		bhi	.L58
 289:main.c        ****     {
 290:main.c        ****         LCD_Text(0,0,textTime);
 905              		.loc 1 290 0
 906 0028 6A46     		mov	r2, sp
 907 002a 0021     		movs	r1, #0
 908 002c 0020     		movs	r0, #0
 909 002e FFF7FEFF 		bl	LCD_Text
 910              	.LVL143:
 291:main.c        ****         LCD_Position(0,lgthTime);
 911              		.loc 1 291 0
 912 0032 0921     		movs	r1, #9
 913 0034 0020     		movs	r0, #0
 914 0036 FFF7FEFF 		bl	LCD_Position
 915              	.LVL144:
 292:main.c        ****         LCD_PrintNumber(time);
 916              		.loc 1 292 0
 917 003a 2000     		movs	r0, r4
 918 003c FFF7FEFF 		bl	LCD_PrintU32Number
 919              	.LVL145:
 920 0040 1CE0     		b	.L59
 921              	.L58:
 293:main.c        ****     }
 294:main.c        ****     else if(time<100)
 922              		.loc 1 294 0
 923 0042 632C     		cmp	r4, #99
 924 0044 0CD8     		bhi	.L60
 295:main.c        ****     {
 296:main.c        ****         LCD_Text(0,0,"Time(s):0");
 925              		.loc 1 296 0
 926 0046 724A     		ldr	r2, .L74+8
 927 0048 0021     		movs	r1, #0
 928 004a 0020     		movs	r0, #0
 929 004c FFF7FEFF 		bl	LCD_Text
 930              	.LVL146:
 297:main.c        ****         LCD_Position(0,lgthTime+1);
 931              		.loc 1 297 0
 932 0050 0A21     		movs	r1, #10
 933 0052 0020     		movs	r0, #0
 934 0054 FFF7FEFF 		bl	LCD_Position
 935              	.LVL147:
 298:main.c        ****         LCD_PrintNumber(time);
 936              		.loc 1 298 0
 937 0058 2000     		movs	r0, r4
 938 005a FFF7FEFF 		bl	LCD_PrintU32Number
 939              	.LVL148:
 940 005e 0DE0     		b	.L59
 941              	.L60:
 299:main.c        ****     }
ARM GAS  C:\Users\josue\AppData\Local\Temp\ccvEuy2d.s 			page 23


 300:main.c        ****     else if(time<10)
 942              		.loc 1 300 0
 943 0060 092C     		cmp	r4, #9
 944 0062 0BD8     		bhi	.L59
 301:main.c        ****     {
 302:main.c        ****         LCD_Text(0,0,"Time(s):00");
 945              		.loc 1 302 0
 946 0064 6B4A     		ldr	r2, .L74+12
 947 0066 0021     		movs	r1, #0
 948 0068 0020     		movs	r0, #0
 949 006a FFF7FEFF 		bl	LCD_Text
 950              	.LVL149:
 303:main.c        ****         LCD_Position(0,lgthTime+2);
 951              		.loc 1 303 0
 952 006e 0B21     		movs	r1, #11
 953 0070 0020     		movs	r0, #0
 954 0072 FFF7FEFF 		bl	LCD_Position
 955              	.LVL150:
 304:main.c        ****         LCD_PrintNumber(time);
 956              		.loc 1 304 0
 957 0076 2000     		movs	r0, r4
 958 0078 FFF7FEFF 		bl	LCD_PrintU32Number
 959              	.LVL151:
 960              	.L59:
 305:main.c        ****     }
 306:main.c        ****     
 307:main.c        ****     LCD_Text(1,0,"Enter:*");
 961              		.loc 1 307 0
 962 007c 664A     		ldr	r2, .L74+16
 963 007e 0021     		movs	r1, #0
 964 0080 0120     		movs	r0, #1
 965 0082 FFF7FEFF 		bl	LCD_Text
 966              	.LVL152:
 308:main.c        ****     LCD_Text(1,9,"Delete:#");
 967              		.loc 1 308 0
 968 0086 654A     		ldr	r2, .L74+20
 969 0088 0921     		movs	r1, #9
 970 008a 0120     		movs	r0, #1
 971 008c FFF7FEFF 		bl	LCD_Text
 972              	.LVL153:
 309:main.c        ****     LCD_Text(2,0,"Cancel:B");
 973              		.loc 1 309 0
 974 0090 634A     		ldr	r2, .L74+24
 975 0092 0021     		movs	r1, #0
 976 0094 0220     		movs	r0, #2
 977 0096 FFF7FEFF 		bl	LCD_Text
 978              	.LVL154:
 979              	.LBB4:
 310:main.c        ****     
 311:main.c        ****     for(unsigned char i=0;i!=1;)
 980              		.loc 1 311 0
 981 009a 0026     		movs	r6, #0
 982              	.LBE4:
 283:main.c        ****     
 983              		.loc 1 283 0
 984 009c 0023     		movs	r3, #0
 985 009e 9846     		mov	r8, r3
ARM GAS  C:\Users\josue\AppData\Local\Temp\ccvEuy2d.s 			page 24


 282:main.c        ****     unsigned short result=0;
 986              		.loc 1 282 0
 987 00a0 0024     		movs	r4, #0
 988              	.LBB5:
 989              		.loc 1 311 0
 990 00a2 A8E0     		b	.L61
 991              	.LVL155:
 992              	.L71:
 312:main.c        ****     {
 313:main.c        ****         key = keyBoard();
 993              		.loc 1 313 0
 994 00a4 FFF7FEFF 		bl	keyBoard
 995              	.LVL156:
 996 00a8 0500     		movs	r5, r0
 997              	.LVL157:
 314:main.c        ****      
 315:main.c        ****         if(key>=0 && key<=9)
 998              		.loc 1 315 0
 999 00aa 0928     		cmp	r0, #9
 1000 00ac 38D8     		bhi	.L62
 316:main.c        ****         {
 317:main.c        ****             if(countNumber==0 && key!=0)
 1001              		.loc 1 317 0
 1002 00ae 002C     		cmp	r4, #0
 1003 00b0 0DD1     		bne	.L63
 1004              		.loc 1 317 0 is_stmt 0 discriminator 1
 1005 00b2 0028     		cmp	r0, #0
 1006 00b4 0BD0     		beq	.L63
 318:main.c        ****             {
 319:main.c        ****                 number[countNumber] = key;
 1007              		.loc 1 319 0 is_stmt 1
 1008 00b6 03AB     		add	r3, sp, #12
 1009 00b8 1855     		strb	r0, [r3, r4]
 320:main.c        ****                 countNumber++;
 1010              		.loc 1 320 0
 1011 00ba 0134     		adds	r4, r4, #1
 1012              	.LVL158:
 1013 00bc E4B2     		uxtb	r4, r4
 1014              	.LVL159:
 321:main.c        ****                 LCD_Position(0,lgthTime+2);
 1015              		.loc 1 321 0
 1016 00be 0B21     		movs	r1, #11
 1017 00c0 0020     		movs	r0, #0
 1018              	.LVL160:
 1019 00c2 FFF7FEFF 		bl	LCD_Position
 1020              	.LVL161:
 322:main.c        ****                 LCD_PrintNumber(key);
 1021              		.loc 1 322 0
 1022 00c6 2800     		movs	r0, r5
 1023 00c8 FFF7FEFF 		bl	LCD_PrintU32Number
 1024              	.LVL162:
 1025 00cc 93E0     		b	.L61
 1026              	.LVL163:
 1027              	.L63:
 323:main.c        ****             }
 324:main.c        ****             else if(countNumber==1)
 1028              		.loc 1 324 0
ARM GAS  C:\Users\josue\AppData\Local\Temp\ccvEuy2d.s 			page 25


 1029 00ce 012C     		cmp	r4, #1
 1030 00d0 11D1     		bne	.L65
 325:main.c        ****             {
 326:main.c        ****                 number[countNumber] = key;
 1031              		.loc 1 326 0
 1032 00d2 03AF     		add	r7, sp, #12
 1033 00d4 3D55     		strb	r5, [r7, r4]
 327:main.c        ****                 countNumber++;
 1034              		.loc 1 327 0
 1035 00d6 0134     		adds	r4, r4, #1
 1036              	.LVL164:
 1037 00d8 E4B2     		uxtb	r4, r4
 1038              	.LVL165:
 328:main.c        ****                 LCD_Position(0,lgthTime+1);
 1039              		.loc 1 328 0
 1040 00da 0A21     		movs	r1, #10
 1041 00dc 0020     		movs	r0, #0
 1042              	.LVL166:
 1043 00de FFF7FEFF 		bl	LCD_Position
 1044              	.LVL167:
 329:main.c        ****                 LCD_PrintNumber((number[0]*10)+number[1]);
 1045              		.loc 1 329 0
 1046 00e2 3978     		ldrb	r1, [r7]
 1047 00e4 7B78     		ldrb	r3, [r7, #1]
 1048 00e6 8A00     		lsls	r2, r1, #2
 1049 00e8 8A18     		adds	r2, r1, r2
 1050 00ea 5000     		lsls	r0, r2, #1
 1051 00ec C018     		adds	r0, r0, r3
 1052 00ee 80B2     		uxth	r0, r0
 1053 00f0 FFF7FEFF 		bl	LCD_PrintU32Number
 1054              	.LVL168:
 1055 00f4 7FE0     		b	.L61
 1056              	.LVL169:
 1057              	.L65:
 330:main.c        ****             }
 331:main.c        ****             else if(countNumber==2)
 1058              		.loc 1 331 0
 1059 00f6 022C     		cmp	r4, #2
 1060 00f8 7DD1     		bne	.L61
 332:main.c        ****             {
 333:main.c        ****                 number[countNumber] = key;
 1061              		.loc 1 333 0
 1062 00fa 03AF     		add	r7, sp, #12
 1063 00fc 3D55     		strb	r5, [r7, r4]
 334:main.c        ****                 countNumber++;
 1064              		.loc 1 334 0
 1065 00fe 0134     		adds	r4, r4, #1
 1066              	.LVL170:
 1067 0100 E4B2     		uxtb	r4, r4
 1068              	.LVL171:
 335:main.c        ****                 LCD_Position(0,lgthTime);
 1069              		.loc 1 335 0
 1070 0102 0921     		movs	r1, #9
 1071 0104 0020     		movs	r0, #0
 1072              	.LVL172:
 1073 0106 FFF7FEFF 		bl	LCD_Position
 1074              	.LVL173:
ARM GAS  C:\Users\josue\AppData\Local\Temp\ccvEuy2d.s 			page 26


 336:main.c        ****                 LCD_PrintNumber(100+(number[1]*10)+number[2]);
 1075              		.loc 1 336 0
 1076 010a 7978     		ldrb	r1, [r7, #1]
 1077 010c BB78     		ldrb	r3, [r7, #2]
 1078 010e 8A00     		lsls	r2, r1, #2
 1079 0110 8A18     		adds	r2, r1, r2
 1080 0112 5000     		lsls	r0, r2, #1
 1081 0114 C018     		adds	r0, r0, r3
 1082 0116 6430     		adds	r0, r0, #100
 1083 0118 80B2     		uxth	r0, r0
 1084 011a FFF7FEFF 		bl	LCD_PrintU32Number
 1085              	.LVL174:
 1086 011e 6AE0     		b	.L61
 1087              	.LVL175:
 1088              	.L62:
 337:main.c        ****             }
 338:main.c        ****         }
 339:main.c        ****         else if(key==11)
 1089              		.loc 1 339 0
 1090 0120 0B28     		cmp	r0, #11
 1091 0122 63D0     		beq	.L72
 340:main.c        ****         {
 341:main.c        ****             i = 1;
 342:main.c        ****             result = 0;
 343:main.c        ****         }
 344:main.c        ****         else if(key==14)
 1092              		.loc 1 344 0
 1093 0124 0E28     		cmp	r0, #14
 1094 0126 24D1     		bne	.L66
 345:main.c        ****         {
 346:main.c        ****             if(countNumber==1)
 1095              		.loc 1 346 0
 1096 0128 012C     		cmp	r4, #1
 1097 012a 04D1     		bne	.L67
 347:main.c        ****             {
 348:main.c        ****                 result = number[0];
 1098              		.loc 1 348 0
 1099 012c 03AB     		add	r3, sp, #12
 1100 012e 1B78     		ldrb	r3, [r3]
 1101 0130 9846     		mov	r8, r3
 1102              	.LVL176:
 349:main.c        ****             }
 350:main.c        ****             else if(countNumber==2)
 351:main.c        ****             {
 352:main.c        ****                 result = ((number[0])*10)+number[1];
 353:main.c        ****             }
 354:main.c        ****             else if(countNumber==3)
 355:main.c        ****             {
 356:main.c        ****                 result = ((number[0])*100)+(number[1]*10)+number[2];
 357:main.c        ****             }
 358:main.c        ****             
 359:main.c        ****             i = 1;
 1103              		.loc 1 359 0
 1104 0132 0126     		movs	r6, #1
 1105              	.LVL177:
 1106 0134 5FE0     		b	.L61
 1107              	.LVL178:
ARM GAS  C:\Users\josue\AppData\Local\Temp\ccvEuy2d.s 			page 27


 1108              	.L67:
 350:main.c        ****             {
 1109              		.loc 1 350 0
 1110 0136 022C     		cmp	r4, #2
 1111 0138 0AD1     		bne	.L68
 352:main.c        ****             }
 1112              		.loc 1 352 0
 1113 013a 03AB     		add	r3, sp, #12
 1114 013c 1978     		ldrb	r1, [r3]
 1115 013e 5A78     		ldrb	r2, [r3, #1]
 1116 0140 8B00     		lsls	r3, r1, #2
 1117 0142 CB18     		adds	r3, r1, r3
 1118 0144 5900     		lsls	r1, r3, #1
 1119 0146 8B18     		adds	r3, r1, r2
 1120 0148 9BB2     		uxth	r3, r3
 1121 014a 9846     		mov	r8, r3
 1122              	.LVL179:
 1123              		.loc 1 359 0
 1124 014c 0126     		movs	r6, #1
 1125              	.LVL180:
 1126 014e 52E0     		b	.L61
 1127              	.LVL181:
 1128              	.L68:
 354:main.c        ****             {
 1129              		.loc 1 354 0
 1130 0150 032C     		cmp	r4, #3
 1131 0152 4FD1     		bne	.L73
 356:main.c        ****             }
 1132              		.loc 1 356 0
 1133 0154 03A9     		add	r1, sp, #12
 1134 0156 0B78     		ldrb	r3, [r1]
 1135 0158 4D78     		ldrb	r5, [r1, #1]
 1136 015a 8978     		ldrb	r1, [r1, #2]
 1137 015c 6420     		movs	r0, #100
 1138              	.LVL182:
 1139 015e 5843     		muls	r0, r3
 1140 0160 AA00     		lsls	r2, r5, #2
 1141 0162 AA18     		adds	r2, r5, r2
 1142 0164 5300     		lsls	r3, r2, #1
 1143 0166 C318     		adds	r3, r0, r3
 1144 0168 5B18     		adds	r3, r3, r1
 1145 016a 9BB2     		uxth	r3, r3
 1146 016c 9846     		mov	r8, r3
 1147              	.LVL183:
 1148              		.loc 1 359 0
 1149 016e 0126     		movs	r6, #1
 1150              	.LVL184:
 1151 0170 41E0     		b	.L61
 1152              	.LVL185:
 1153              	.L66:
 360:main.c        ****         }
 361:main.c        ****         else if(key==15)
 1154              		.loc 1 361 0
 1155 0172 0F28     		cmp	r0, #15
 1156 0174 3FD1     		bne	.L61
 362:main.c        ****         {
 363:main.c        ****             if(countNumber==1)
ARM GAS  C:\Users\josue\AppData\Local\Temp\ccvEuy2d.s 			page 28


 1157              		.loc 1 363 0
 1158 0176 012C     		cmp	r4, #1
 1159 0178 0AD1     		bne	.L69
 364:main.c        ****             {
 365:main.c        ****                 LCD_Text(0,lgthTime+2,"0");
 1160              		.loc 1 365 0
 1161 017a 2A4A     		ldr	r2, .L74+28
 1162 017c 0B21     		movs	r1, #11
 1163 017e 0020     		movs	r0, #0
 1164              	.LVL186:
 1165 0180 FFF7FEFF 		bl	LCD_Text
 1166              	.LVL187:
 366:main.c        ****                 countNumber--;
 1167              		.loc 1 366 0
 1168 0184 013C     		subs	r4, r4, #1
 1169              	.LVL188:
 1170 0186 E4B2     		uxtb	r4, r4
 1171              	.LVL189:
 367:main.c        ****                 number[countNumber] = 0;
 1172              		.loc 1 367 0
 1173 0188 0022     		movs	r2, #0
 1174 018a 03AB     		add	r3, sp, #12
 1175 018c 1A55     		strb	r2, [r3, r4]
 1176 018e 32E0     		b	.L61
 1177              	.LVL190:
 1178              	.L69:
 368:main.c        ****             }
 369:main.c        ****             else if(countNumber==2)
 1179              		.loc 1 369 0
 1180 0190 022C     		cmp	r4, #2
 1181 0192 11D1     		bne	.L70
 370:main.c        ****             {
 371:main.c        ****                 LCD_Text(0,lgthTime+1,"0");
 1182              		.loc 1 371 0
 1183 0194 234A     		ldr	r2, .L74+28
 1184 0196 0A21     		movs	r1, #10
 1185 0198 0020     		movs	r0, #0
 1186              	.LVL191:
 1187 019a FFF7FEFF 		bl	LCD_Text
 1188              	.LVL192:
 372:main.c        ****                 LCD_Position(0,lgthTime+2);
 1189              		.loc 1 372 0
 1190 019e 0B21     		movs	r1, #11
 1191 01a0 0020     		movs	r0, #0
 1192 01a2 FFF7FEFF 		bl	LCD_Position
 1193              	.LVL193:
 373:main.c        ****                 LCD_PrintNumber(number[0]);
 1194              		.loc 1 373 0
 1195 01a6 03AD     		add	r5, sp, #12
 1196 01a8 2878     		ldrb	r0, [r5]
 1197 01aa FFF7FEFF 		bl	LCD_PrintU32Number
 1198              	.LVL194:
 374:main.c        ****                 
 375:main.c        ****                 countNumber--;
 1199              		.loc 1 375 0
 1200 01ae 013C     		subs	r4, r4, #1
 1201              	.LVL195:
ARM GAS  C:\Users\josue\AppData\Local\Temp\ccvEuy2d.s 			page 29


 1202 01b0 E4B2     		uxtb	r4, r4
 1203              	.LVL196:
 376:main.c        ****                 number[countNumber] = 0;
 1204              		.loc 1 376 0
 1205 01b2 0023     		movs	r3, #0
 1206 01b4 2B55     		strb	r3, [r5, r4]
 1207 01b6 1EE0     		b	.L61
 1208              	.LVL197:
 1209              	.L70:
 377:main.c        ****             }
 378:main.c        ****             else if(countNumber==3)
 1210              		.loc 1 378 0
 1211 01b8 032C     		cmp	r4, #3
 1212 01ba 1CD1     		bne	.L61
 379:main.c        ****             {
 380:main.c        ****                 LCD_Text(0,lgthTime,"0");
 1213              		.loc 1 380 0
 1214 01bc 194A     		ldr	r2, .L74+28
 1215 01be 0921     		movs	r1, #9
 1216 01c0 0020     		movs	r0, #0
 1217              	.LVL198:
 1218 01c2 FFF7FEFF 		bl	LCD_Text
 1219              	.LVL199:
 381:main.c        ****                 LCD_Position(0,lgthTime+1);
 1220              		.loc 1 381 0
 1221 01c6 0A21     		movs	r1, #10
 1222 01c8 0020     		movs	r0, #0
 1223 01ca FFF7FEFF 		bl	LCD_Position
 1224              	.LVL200:
 382:main.c        ****                 LCD_PrintNumber((number[0]*10)+number[1]);
 1225              		.loc 1 382 0
 1226 01ce 03AD     		add	r5, sp, #12
 1227 01d0 2978     		ldrb	r1, [r5]
 1228 01d2 6B78     		ldrb	r3, [r5, #1]
 1229 01d4 8A00     		lsls	r2, r1, #2
 1230 01d6 8A18     		adds	r2, r1, r2
 1231 01d8 5000     		lsls	r0, r2, #1
 1232 01da C018     		adds	r0, r0, r3
 1233 01dc 80B2     		uxth	r0, r0
 1234 01de FFF7FEFF 		bl	LCD_PrintU32Number
 1235              	.LVL201:
 383:main.c        ****                 
 384:main.c        ****                 countNumber--;
 1236              		.loc 1 384 0
 1237 01e2 013C     		subs	r4, r4, #1
 1238              	.LVL202:
 1239 01e4 E4B2     		uxtb	r4, r4
 1240              	.LVL203:
 385:main.c        ****                 number[countNumber] = 0;
 1241              		.loc 1 385 0
 1242 01e6 0023     		movs	r3, #0
 1243 01e8 2B55     		strb	r3, [r5, r4]
 1244 01ea 04E0     		b	.L61
 1245              	.LVL204:
 1246              	.L72:
 341:main.c        ****             result = 0;
 1247              		.loc 1 341 0
ARM GAS  C:\Users\josue\AppData\Local\Temp\ccvEuy2d.s 			page 30


 1248 01ec 0126     		movs	r6, #1
 1249              	.LVL205:
 342:main.c        ****         }
 1250              		.loc 1 342 0
 1251 01ee 0023     		movs	r3, #0
 1252 01f0 9846     		mov	r8, r3
 1253              	.LVL206:
 1254 01f2 00E0     		b	.L61
 1255              	.LVL207:
 1256              	.L73:
 359:main.c        ****         }
 1257              		.loc 1 359 0
 1258 01f4 0126     		movs	r6, #1
 1259              	.LVL208:
 1260              	.L61:
 311:main.c        ****     {
 1261              		.loc 1 311 0 discriminator 1
 1262 01f6 012E     		cmp	r6, #1
 1263 01f8 00D0     		beq	.LCB1187
 1264 01fa 53E7     		b	.L71	@long jump
 1265              	.LCB1187:
 1266              	.LBE5:
 386:main.c        ****             }
 387:main.c        ****             
 388:main.c        ****         }
 389:main.c        ****     }
 390:main.c        ****     
 391:main.c        ****     return result;
 392:main.c        ****     
 393:main.c        **** }
 1267              		.loc 1 393 0
 1268 01fc 4046     		mov	r0, r8
 1269 01fe 04B0     		add	sp, sp, #16
 1270              		@ sp needed
 1271              	.LVL209:
 1272              	.LVL210:
 1273              	.LVL211:
 1274 0200 04BC     		pop	{r2}
 1275 0202 9046     		mov	r8, r2
 1276 0204 F0BD     		pop	{r4, r5, r6, r7, pc}
 1277              	.L75:
 1278 0206 C046     		.align	2
 1279              	.L74:
 1280 0208 AC000000 		.word	.LC22
 1281 020c E7030000 		.word	999
 1282 0210 88000000 		.word	.LC24
 1283 0214 94000000 		.word	.LC26
 1284 0218 54000000 		.word	.LC14
 1285 021c 5C000000 		.word	.LC16
 1286 0220 A0000000 		.word	.LC30
 1287 0224 74000000 		.word	.LC20
 1288              		.cfi_endproc
 1289              	.LFE40:
 1290              		.size	Time_Box, .-Time_Box
 1291              		.section	.text.Dimmer,"ax",%progbits
 1292              		.align	2
 1293              		.global	Dimmer
ARM GAS  C:\Users\josue\AppData\Local\Temp\ccvEuy2d.s 			page 31


 1294              		.code	16
 1295              		.thumb_func
 1296              		.type	Dimmer, %function
 1297              	Dimmer:
 1298              	.LFB41:
 394:main.c        **** 
 395:main.c        **** void Dimmer(unsigned char intensity,unsigned char time)
 396:main.c        **** {
 1299              		.loc 1 396 0
 1300              		.cfi_startproc
 1301              		@ args = 0, pretend = 0, frame = 24
 1302              		@ frame_needed = 0, uses_anonymous_args = 0
 1303              	.LVL212:
 1304 0000 F0B5     		push	{r4, r5, r6, r7, lr}
 1305              		.cfi_def_cfa_offset 20
 1306              		.cfi_offset 4, -20
 1307              		.cfi_offset 5, -16
 1308              		.cfi_offset 6, -12
 1309              		.cfi_offset 7, -8
 1310              		.cfi_offset 14, -4
 1311 0002 87B0     		sub	sp, sp, #28
 1312              		.cfi_def_cfa_offset 48
 1313 0004 0700     		movs	r7, r0
 1314 0006 0C00     		movs	r4, r1
 1315 0008 0191     		str	r1, [sp, #4]
 1316              	.LVL213:
 397:main.c        ****     unsigned char key;
 398:main.c        ****     unsigned char Seg = 0;
 399:main.c        ****     unsigned short resta = 0;
 400:main.c        ****     
 401:main.c        ****     char8 const textInt[]="Intensity(%):"; 
 1317              		.loc 1 401 0
 1318 000a 02AA     		add	r2, sp, #8
 1319 000c 424B     		ldr	r3, .L88
 1320 000e 1100     		movs	r1, r2
 1321              	.LVL214:
 1322 0010 61CB     		ldmia	r3!, {r0, r5, r6}
 1323 0012 61C1     		stmia	r1!, {r0, r5, r6}
 1324              	.LVL215:
 1325 0014 1B88     		ldrh	r3, [r3]
 1326 0016 0B80     		strh	r3, [r1]
 1327              	.LVL216:
 402:main.c        ****     unsigned char lgthInt = sizeof(textInt)/sizeof(textInt[0]);
 403:main.c        ****     LCD_Text(0,0,textInt);
 1328              		.loc 1 403 0
 1329 0018 0021     		movs	r1, #0
 1330 001a 0020     		movs	r0, #0
 1331 001c FFF7FEFF 		bl	LCD_Text
 1332              	.LVL217:
 404:main.c        ****     LCD_Position(0,lgthInt);
 1333              		.loc 1 404 0
 1334 0020 0E21     		movs	r1, #14
 1335 0022 0020     		movs	r0, #0
 1336 0024 FFF7FEFF 		bl	LCD_Position
 1337              	.LVL218:
 405:main.c        ****     LCD_PrintNumber(intensity);
 1338              		.loc 1 405 0
ARM GAS  C:\Users\josue\AppData\Local\Temp\ccvEuy2d.s 			page 32


 1339 0028 3800     		movs	r0, r7
 1340 002a FFF7FEFF 		bl	LCD_PrintU32Number
 1341              	.LVL219:
 406:main.c        ****     
 407:main.c        ****     char8 const textTime[]="Time(s):"; 
 408:main.c        ****     unsigned char lgthTime = sizeof(textTime)/sizeof(textTime[0]);
 409:main.c        ****     LCD_Position(1,lgthTime);
 1342              		.loc 1 409 0
 1343 002e 0921     		movs	r1, #9
 1344 0030 0120     		movs	r0, #1
 1345 0032 FFF7FEFF 		bl	LCD_Position
 1346              	.LVL220:
 410:main.c        ****     LCD_PrintNumber(time);
 1347              		.loc 1 410 0
 1348 0036 2000     		movs	r0, r4
 1349 0038 FFF7FEFF 		bl	LCD_PrintU32Number
 1350              	.LVL221:
 411:main.c        ****     
 412:main.c        ****     LCD_Text(0,2,"Cancel: C"); 
 1351              		.loc 1 412 0
 1352 003c 374A     		ldr	r2, .L88+4
 1353 003e 0221     		movs	r1, #2
 1354 0040 0020     		movs	r0, #0
 1355 0042 FFF7FEFF 		bl	LCD_Text
 1356              	.LVL222:
 413:main.c        ****     
 414:main.c        ****     Timer_Wakeup();
 1357              		.loc 1 414 0
 1358 0046 FFF7FEFF 		bl	Timer_Wakeup
 1359              	.LVL223:
 415:main.c        ****     
 416:main.c        ****     isrTimer_StartEx(Timer);
 1360              		.loc 1 416 0
 1361 004a 3548     		ldr	r0, .L88+8
 1362 004c FFF7FEFF 		bl	isrTimer_StartEx
 1363              	.LVL224:
 417:main.c        ****     isrCross_StartEx(Cross);
 1364              		.loc 1 417 0
 1365 0050 3448     		ldr	r0, .L88+12
 1366 0052 FFF7FEFF 		bl	isrCross_StartEx
 1367              	.LVL225:
 1368              	.LBB6:
 418:main.c        ****     
 419:main.c        ****     for(unsigned char i=0;i!=1;)
 1369              		.loc 1 419 0
 1370 0056 0026     		movs	r6, #0
 1371              	.LBE6:
 398:main.c        ****     unsigned short resta = 0;
 1372              		.loc 1 398 0
 1373 0058 0025     		movs	r5, #0
 1374              	.LBB7:
 1375              		.loc 1 419 0
 1376 005a 50E0     		b	.L77
 1377              	.LVL226:
 1378              	.L87:
 420:main.c        ****     {
 421:main.c        ****         key = keyBoard();
ARM GAS  C:\Users\josue\AppData\Local\Temp\ccvEuy2d.s 			page 33


 1379              		.loc 1 421 0
 1380 005c FFF7FEFF 		bl	keyBoard
 1381              	.LVL227:
 422:main.c        ****         
 423:main.c        ****         if(countSeg==time || key==12)
 1382              		.loc 1 423 0
 1383 0060 6B46     		mov	r3, sp
 1384 0062 9C88     		ldrh	r4, [r3, #4]
 1385 0064 304B     		ldr	r3, .L88+16
 1386 0066 5B88     		ldrh	r3, [r3, #2]
 1387 0068 9C42     		cmp	r4, r3
 1388 006a 01D0     		beq	.L78
 1389              		.loc 1 423 0 is_stmt 0 discriminator 1
 1390 006c 0C28     		cmp	r0, #12
 1391 006e 04D1     		bne	.L79
 1392              	.L78:
 424:main.c        ****         {
 425:main.c        ****             Dimmer_Write(1);
 1393              		.loc 1 425 0 is_stmt 1
 1394 0070 0120     		movs	r0, #1
 1395              	.LVL228:
 1396 0072 FFF7FEFF 		bl	Dimmer_Write
 1397              	.LVL229:
 426:main.c        ****             i++;
 1398              		.loc 1 426 0
 1399 0076 0136     		adds	r6, r6, #1
 1400              	.LVL230:
 1401 0078 F6B2     		uxtb	r6, r6
 1402              	.LVL231:
 1403              	.L79:
 427:main.c        ****         }
 428:main.c        ****         
 429:main.c        ****         if(intensity==0)        //Pin "Salida" is on pull-down configuration
 1404              		.loc 1 429 0
 1405 007a 002F     		cmp	r7, #0
 1406 007c 03D1     		bne	.L80
 430:main.c        ****         {
 431:main.c        ****             Dimmer_Write(1);
 1407              		.loc 1 431 0
 1408 007e 0120     		movs	r0, #1
 1409 0080 FFF7FEFF 		bl	Dimmer_Write
 1410              	.LVL232:
 1411 0084 0BE0     		b	.L81
 1412              	.L80:
 432:main.c        ****         }
 433:main.c        ****         else if(count<=intensity)
 1413              		.loc 1 433 0
 1414 0086 BBB2     		uxth	r3, r7
 1415 0088 274A     		ldr	r2, .L88+16
 1416 008a 1288     		ldrh	r2, [r2]
 1417 008c 9342     		cmp	r3, r2
 1418 008e 03D3     		bcc	.L82
 434:main.c        ****         {
 435:main.c        ****             Dimmer_Write(0);
 1419              		.loc 1 435 0
 1420 0090 0020     		movs	r0, #0
 1421 0092 FFF7FEFF 		bl	Dimmer_Write
ARM GAS  C:\Users\josue\AppData\Local\Temp\ccvEuy2d.s 			page 34


 1422              	.LVL233:
 1423 0096 02E0     		b	.L81
 1424              	.L82:
 436:main.c        ****         }
 437:main.c        ****         else
 438:main.c        ****         {
 439:main.c        ****             Dimmer_Write(1);
 1425              		.loc 1 439 0
 1426 0098 0120     		movs	r0, #1
 1427 009a FFF7FEFF 		bl	Dimmer_Write
 1428              	.LVL234:
 1429              	.L81:
 440:main.c        ****         }
 441:main.c        ****         
 442:main.c        ****         if(Seg != countSeg)
 1430              		.loc 1 442 0
 1431 009e ABB2     		uxth	r3, r5
 1432 00a0 214A     		ldr	r2, .L88+16
 1433 00a2 5288     		ldrh	r2, [r2, #2]
 1434 00a4 9342     		cmp	r3, r2
 1435 00a6 2AD0     		beq	.L77
 443:main.c        ****         {
 444:main.c        ****             resta = time - Seg;
 1436              		.loc 1 444 0
 1437 00a8 E31A     		subs	r3, r4, r3
 1438 00aa 9BB2     		uxth	r3, r3
 1439              	.LVL235:
 445:main.c        ****             
 446:main.c        ****             if(resta<10)
 1440              		.loc 1 446 0
 1441 00ac 092B     		cmp	r3, #9
 1442 00ae 0AD8     		bhi	.L84
 447:main.c        ****             {
 448:main.c        ****                 LCD_Position(1,lgthTime+2);
 1443              		.loc 1 448 0
 1444 00b0 0B21     		movs	r1, #11
 1445 00b2 0120     		movs	r0, #1
 1446 00b4 FFF7FEFF 		bl	LCD_Position
 1447              	.LVL236:
 449:main.c        ****                 LCD_PrintNumber(time-countSeg);
 1448              		.loc 1 449 0
 1449 00b8 1B4B     		ldr	r3, .L88+16
 1450 00ba 5888     		ldrh	r0, [r3, #2]
 1451 00bc 201A     		subs	r0, r4, r0
 1452 00be 80B2     		uxth	r0, r0
 1453 00c0 FFF7FEFF 		bl	LCD_PrintU32Number
 1454              	.LVL237:
 1455 00c4 19E0     		b	.L85
 1456              	.LVL238:
 1457              	.L84:
 450:main.c        ****             }
 451:main.c        ****             else if(resta<100)
 1458              		.loc 1 451 0
 1459 00c6 632B     		cmp	r3, #99
 1460 00c8 0AD8     		bhi	.L86
 452:main.c        ****             {
 453:main.c        ****                 LCD_Position(1,lgthTime+1);
ARM GAS  C:\Users\josue\AppData\Local\Temp\ccvEuy2d.s 			page 35


 1461              		.loc 1 453 0
 1462 00ca 0A21     		movs	r1, #10
 1463 00cc 0120     		movs	r0, #1
 1464 00ce FFF7FEFF 		bl	LCD_Position
 1465              	.LVL239:
 454:main.c        ****                 LCD_PrintNumber(time-countSeg);
 1466              		.loc 1 454 0
 1467 00d2 154B     		ldr	r3, .L88+16
 1468 00d4 5888     		ldrh	r0, [r3, #2]
 1469 00d6 201A     		subs	r0, r4, r0
 1470 00d8 80B2     		uxth	r0, r0
 1471 00da FFF7FEFF 		bl	LCD_PrintU32Number
 1472              	.LVL240:
 1473 00de 0CE0     		b	.L85
 1474              	.LVL241:
 1475              	.L86:
 455:main.c        ****             }
 456:main.c        ****             else if(resta<1000)
 1476              		.loc 1 456 0
 1477 00e0 124A     		ldr	r2, .L88+20
 1478 00e2 9342     		cmp	r3, r2
 1479 00e4 09D8     		bhi	.L85
 457:main.c        ****             {
 458:main.c        ****                 LCD_Position(1,lgthTime);
 1480              		.loc 1 458 0
 1481 00e6 0921     		movs	r1, #9
 1482 00e8 0120     		movs	r0, #1
 1483 00ea FFF7FEFF 		bl	LCD_Position
 1484              	.LVL242:
 459:main.c        ****                 LCD_PrintNumber(time-countSeg);
 1485              		.loc 1 459 0
 1486 00ee 0E4B     		ldr	r3, .L88+16
 1487 00f0 5888     		ldrh	r0, [r3, #2]
 1488 00f2 201A     		subs	r0, r4, r0
 1489 00f4 80B2     		uxth	r0, r0
 1490 00f6 FFF7FEFF 		bl	LCD_PrintU32Number
 1491              	.LVL243:
 1492              	.L85:
 460:main.c        ****             }
 461:main.c        ****             
 462:main.c        ****             Seg = countSeg;
 1493              		.loc 1 462 0
 1494 00fa 0B4B     		ldr	r3, .L88+16
 1495 00fc 9D78     		ldrb	r5, [r3, #2]
 1496              	.LVL244:
 1497              	.L77:
 419:main.c        ****     {
 1498              		.loc 1 419 0 discriminator 1
 1499 00fe 012E     		cmp	r6, #1
 1500 0100 ACD1     		bne	.L87
 1501              	.LBE7:
 463:main.c        ****         }
 464:main.c        ****     }
 465:main.c        ****     
 466:main.c        ****     isrTimer_Disable();
 1502              		.loc 1 466 0
 1503 0102 FFF7FEFF 		bl	isrTimer_Disable
ARM GAS  C:\Users\josue\AppData\Local\Temp\ccvEuy2d.s 			page 36


 1504              	.LVL245:
 467:main.c        ****     isrCross_Disable();
 1505              		.loc 1 467 0
 1506 0106 FFF7FEFF 		bl	isrCross_Disable
 1507              	.LVL246:
 468:main.c        ****     isrTimer_Stop();
 1508              		.loc 1 468 0
 1509 010a FFF7FEFF 		bl	isrTimer_Stop
 1510              	.LVL247:
 469:main.c        ****     
 470:main.c        ****     Timer_Sleep();
 1511              		.loc 1 470 0
 1512 010e FFF7FEFF 		bl	Timer_Sleep
 1513              	.LVL248:
 471:main.c        **** }
 1514              		.loc 1 471 0
 1515 0112 07B0     		add	sp, sp, #28
 1516              		@ sp needed
 1517              	.LVL249:
 1518              	.LVL250:
 1519 0114 F0BD     		pop	{r4, r5, r6, r7, pc}
 1520              	.L89:
 1521 0116 C046     		.align	2
 1522              	.L88:
 1523 0118 78000000 		.word	.LC8
 1524 011c B8000000 		.word	.LC34
 1525 0120 00000000 		.word	Timer
 1526 0124 00000000 		.word	Cross
 1527 0128 00000000 		.word	.LANCHOR0
 1528 012c E7030000 		.word	999
 1529              		.cfi_endproc
 1530              	.LFE41:
 1531              		.size	Dimmer, .-Dimmer
 1532              		.section	.text.main,"ax",%progbits
 1533              		.align	2
 1534              		.global	main
 1535              		.code	16
 1536              		.thumb_func
 1537              		.type	main, %function
 1538              	main:
 1539              	.LFB42:
 472:main.c        **** 
 473:main.c        **** int main(void)
 474:main.c        **** {
 1540              		.loc 1 474 0
 1541              		.cfi_startproc
 1542              		@ args = 0, pretend = 0, frame = 0
 1543              		@ frame_needed = 0, uses_anonymous_args = 0
 1544 0000 70B5     		push	{r4, r5, r6, lr}
 1545              		.cfi_def_cfa_offset 16
 1546              		.cfi_offset 4, -16
 1547              		.cfi_offset 5, -12
 1548              		.cfi_offset 6, -8
 1549              		.cfi_offset 14, -4
 1550              	.LVL251:
 475:main.c        ****     unsigned char State = 0;
 476:main.c        ****     unsigned char Intensity = 0;
ARM GAS  C:\Users\josue\AppData\Local\Temp\ccvEuy2d.s 			page 37


 477:main.c        ****     unsigned char Time = 0;
 478:main.c        ****     
 479:main.c        ****     CyGlobalIntEnable; /* Enable global interrupts. */
 1551              		.loc 1 479 0
 1552              		.syntax divided
 1553              	@ 479 "main.c" 1
 1554 0002 62B6     		CPSIE   i
 1555              	@ 0 "" 2
 480:main.c        **** 
 481:main.c        ****     
 482:main.c        ****     LCD_Start();
 1556              		.loc 1 482 0
 1557              		.thumb
 1558              		.syntax unified
 1559 0004 FFF7FEFF 		bl	LCD_Start
 1560              	.LVL252:
 483:main.c        ****     Timer_Start();
 1561              		.loc 1 483 0
 1562 0008 FFF7FEFF 		bl	Timer_Start
 1563              	.LVL253:
 484:main.c        ****     Timer_Sleep();
 1564              		.loc 1 484 0
 1565 000c FFF7FEFF 		bl	Timer_Sleep
 1566              	.LVL254:
 477:main.c        ****     
 1567              		.loc 1 477 0
 1568 0010 0025     		movs	r5, #0
 476:main.c        ****     unsigned char Time = 0;
 1569              		.loc 1 476 0
 1570 0012 0024     		movs	r4, #0
 475:main.c        ****     unsigned char Intensity = 0;
 1571              		.loc 1 475 0
 1572 0014 0020     		movs	r0, #0
 1573              	.LVL255:
 1574              	.L92:
 485:main.c        ****     
 486:main.c        ****     for(;;)
 487:main.c        ****     {
 488:main.c        ****         switch(State)
 1575              		.loc 1 488 0
 1576 0016 0128     		cmp	r0, #1
 1577 0018 0BD0     		beq	.L93
 1578 001a 0028     		cmp	r0, #0
 1579 001c 04D0     		beq	.L94
 1580 001e 0228     		cmp	r0, #2
 1581 0020 0DD0     		beq	.L95
 1582 0022 0328     		cmp	r0, #3
 1583 0024 11D0     		beq	.L96
 1584 0026 F6E7     		b	.L92
 1585              	.L94:
 489:main.c        ****         {
 490:main.c        ****             case 0:
 491:main.c        ****                 State = General_Menu(Intensity,Time);
 1586              		.loc 1 491 0
 1587 0028 2900     		movs	r1, r5
 1588 002a 2000     		movs	r0, r4
 1589              	.LVL256:
ARM GAS  C:\Users\josue\AppData\Local\Temp\ccvEuy2d.s 			page 38


 1590 002c FFF7FEFF 		bl	General_Menu
 1591              	.LVL257:
 492:main.c        ****             break;
 1592              		.loc 1 492 0
 1593 0030 F1E7     		b	.L92
 1594              	.L93:
 493:main.c        ****             
 494:main.c        ****             case 1:
 495:main.c        ****                 Intensity = Intensity_Box(Intensity);
 1595              		.loc 1 495 0
 1596 0032 A0B2     		uxth	r0, r4
 1597              	.LVL258:
 1598 0034 FFF7FEFF 		bl	Intensity_Box
 1599              	.LVL259:
 1600 0038 0400     		movs	r4, r0
 1601              	.LVL260:
 496:main.c        ****                 State = 0;
 1602              		.loc 1 496 0
 1603 003a 0020     		movs	r0, #0
 1604              	.LVL261:
 497:main.c        ****             break;
 1605              		.loc 1 497 0
 1606 003c EBE7     		b	.L92
 1607              	.LVL262:
 1608              	.L95:
 498:main.c        ****             
 499:main.c        ****             case 2:
 500:main.c        ****                 Time = Time_Box(Time);
 1609              		.loc 1 500 0
 1610 003e A8B2     		uxth	r0, r5
 1611              	.LVL263:
 1612 0040 FFF7FEFF 		bl	Time_Box
 1613              	.LVL264:
 1614 0044 C5B2     		uxtb	r5, r0
 1615              	.LVL265:
 501:main.c        ****                 State = 0;
 1616              		.loc 1 501 0
 1617 0046 0020     		movs	r0, #0
 502:main.c        ****             break;
 1618              		.loc 1 502 0
 1619 0048 E5E7     		b	.L92
 1620              	.LVL266:
 1621              	.L96:
 503:main.c        ****             
 504:main.c        ****             case 3:
 505:main.c        ****                 Dimmer(Intensity,Time);
 1622              		.loc 1 505 0
 1623 004a 2900     		movs	r1, r5
 1624 004c 2000     		movs	r0, r4
 1625              	.LVL267:
 1626 004e FFF7FEFF 		bl	Dimmer
 1627              	.LVL268:
 506:main.c        ****                 State = 0;
 1628              		.loc 1 506 0
 1629 0052 0020     		movs	r0, #0
 507:main.c        ****             break;
 1630              		.loc 1 507 0
ARM GAS  C:\Users\josue\AppData\Local\Temp\ccvEuy2d.s 			page 39


 1631 0054 DFE7     		b	.L92
 1632              		.cfi_endproc
 1633              	.LFE42:
 1634              		.size	main, .-main
 1635              		.global	countSeg
 1636              		.global	count
 1637 0056 C046     		.section	.rodata.str1.4,"aMS",%progbits,1
 1638              		.align	2
 1639              	.LC6:
 1640 0000 53746172 		.ascii	"Start Dimmer: C\000"
 1640      74204469 
 1640      6D6D6572 
 1640      3A204300 
 1641              	.LC2:
 1642 0010 496E7465 		.ascii	"Intensity(A):   %\000"
 1642      6E736974 
 1642      79284129 
 1642      3A202020 
 1642      2500
 1643 0022 0000     		.space	2
 1644              	.LC4:
 1645 0024 54696D65 		.ascii	"Time(B):   s\000"
 1645      2842293A 
 1645      20202073 
 1645      00
 1646 0031 000000   		.space	3
 1647              	.LC10:
 1648 0034 496E7465 		.ascii	"Intensity(%):0\000"
 1648      6E736974 
 1648      79282529 
 1648      3A3000
 1649 0043 00       		.space	1
 1650              	.LC12:
 1651 0044 496E7465 		.ascii	"Intensity(%):00\000"
 1651      6E736974 
 1651      79282529 
 1651      3A303000 
 1652              	.LC14:
 1653 0054 456E7465 		.ascii	"Enter:*\000"
 1653      723A2A00 
 1654              	.LC16:
 1655 005c 44656C65 		.ascii	"Delete:#\000"
 1655      74653A23 
 1655      00
 1656 0065 000000   		.space	3
 1657              	.LC18:
 1658 0068 43616E63 		.ascii	"Cancel:A\000"
 1658      656C3A41 
 1658      00
 1659 0071 000000   		.space	3
 1660              	.LC20:
 1661 0074 3000     		.ascii	"0\000"
 1662 0076 0000     		.space	2
 1663              	.LC8:
 1664 0078 496E7465 		.ascii	"Intensity(%):\000"
 1664      6E736974 
 1664      79282529 
ARM GAS  C:\Users\josue\AppData\Local\Temp\ccvEuy2d.s 			page 40


 1664      3A00
 1665 0086 0000     		.space	2
 1666              	.LC24:
 1667 0088 54696D65 		.ascii	"Time(s):0\000"
 1667      2873293A 
 1667      3000
 1668 0092 0000     		.space	2
 1669              	.LC26:
 1670 0094 54696D65 		.ascii	"Time(s):00\000"
 1670      2873293A 
 1670      303000
 1671 009f 00       		.space	1
 1672              	.LC30:
 1673 00a0 43616E63 		.ascii	"Cancel:B\000"
 1673      656C3A42 
 1673      00
 1674 00a9 000000   		.space	3
 1675              	.LC22:
 1676 00ac 54696D65 		.ascii	"Time(s):\000"
 1676      2873293A 
 1676      00
 1677 00b5 000000   		.space	3
 1678              	.LC34:
 1679 00b8 43616E63 		.ascii	"Cancel: C\000"
 1679      656C3A20 
 1679      4300
 1680              		.bss
 1681              		.align	1
 1682              		.set	.LANCHOR0,. + 0
 1683              		.type	count, %object
 1684              		.size	count, 2
 1685              	count:
 1686 0000 0000     		.space	2
 1687              		.type	countSeg, %object
 1688              		.size	countSeg, 2
 1689              	countSeg:
 1690 0002 0000     		.space	2
 1691              		.text
 1692              	.Letext0:
 1693              		.file 2 "Generated_Source\\PSoC4/cytypes.h"
 1694              		.file 3 "Generated_Source\\PSoC4/Control.h"
 1695              		.file 4 "Generated_Source\\PSoC4/Status.h"
 1696              		.file 5 "Generated_Source\\PSoC4/LCD.h"
 1697              		.file 6 "Generated_Source\\PSoC4/Dimmer.h"
 1698              		.file 7 "Generated_Source\\PSoC4/Timer.h"
 1699              		.file 8 "Generated_Source\\PSoC4/isrTimer.h"
 1700              		.file 9 "Generated_Source\\PSoC4/isrCross.h"